ARM GAS  C:\Users\wizar\AppData\Local\Temp\ccRaZdSN.s 			page 1


   1              		.cpu cortex-m3
   2              		.arch armv7-m
   3              		.fpu softvfp
   4              		.eabi_attribute 20, 1
   5              		.eabi_attribute 21, 1
   6              		.eabi_attribute 23, 3
   7              		.eabi_attribute 24, 1
   8              		.eabi_attribute 25, 1
   9              		.eabi_attribute 26, 1
  10              		.eabi_attribute 30, 1
  11              		.eabi_attribute 34, 1
  12              		.eabi_attribute 18, 4
  13              		.file	"SEGGER_RTT.c"
  14              		.text
  15              	.Ltext0:
  16              		.cfi_sections	.debug_frame
  17              		.section	.text._GetAvailWriteSpace,"ax",%progbits
  18              		.align	1
  19              		.syntax unified
  20              		.thumb
  21              		.thumb_func
  23              	_GetAvailWriteSpace:
  24              	.LVL0:
  25              	.LFB4:
  26              		.file 1 "RTT/SEGGER_RTT.c"
   1:RTT/SEGGER_RTT.c **** /*********************************************************************
   2:RTT/SEGGER_RTT.c **** *                    SEGGER Microcontroller GmbH                     *
   3:RTT/SEGGER_RTT.c **** *                        The Embedded Experts                        *
   4:RTT/SEGGER_RTT.c **** **********************************************************************
   5:RTT/SEGGER_RTT.c **** *                                                                    *
   6:RTT/SEGGER_RTT.c **** *            (c) 1995 - 2021 SEGGER Microcontroller GmbH             *
   7:RTT/SEGGER_RTT.c **** *                                                                    *
   8:RTT/SEGGER_RTT.c **** *       www.segger.com     Support: support@segger.com               *
   9:RTT/SEGGER_RTT.c **** *                                                                    *
  10:RTT/SEGGER_RTT.c **** **********************************************************************
  11:RTT/SEGGER_RTT.c **** *                                                                    *
  12:RTT/SEGGER_RTT.c **** *       SEGGER RTT * Real Time Transfer for embedded targets         *
  13:RTT/SEGGER_RTT.c **** *                                                                    *
  14:RTT/SEGGER_RTT.c **** **********************************************************************
  15:RTT/SEGGER_RTT.c **** *                                                                    *
  16:RTT/SEGGER_RTT.c **** * All rights reserved.                                               *
  17:RTT/SEGGER_RTT.c **** *                                                                    *
  18:RTT/SEGGER_RTT.c **** * SEGGER strongly recommends to not make any changes                 *
  19:RTT/SEGGER_RTT.c **** * to or modify the source code of this software in order to stay     *
  20:RTT/SEGGER_RTT.c **** * compatible with the RTT protocol and J-Link.                       *
  21:RTT/SEGGER_RTT.c **** *                                                                    *
  22:RTT/SEGGER_RTT.c **** * Redistribution and use in source and binary forms, with or         *
  23:RTT/SEGGER_RTT.c **** * without modification, are permitted provided that the following    *
  24:RTT/SEGGER_RTT.c **** * condition is met:                                                  *
  25:RTT/SEGGER_RTT.c **** *                                                                    *
  26:RTT/SEGGER_RTT.c **** * o Redistributions of source code must retain the above copyright   *
  27:RTT/SEGGER_RTT.c **** *   notice, this condition and the following disclaimer.             *
  28:RTT/SEGGER_RTT.c **** *                                                                    *
  29:RTT/SEGGER_RTT.c **** * THIS SOFTWARE IS PROVIDED BY THE COPYRIGHT HOLDERS AND             *
  30:RTT/SEGGER_RTT.c **** * CONTRIBUTORS "AS IS" AND ANY EXPRESS OR IMPLIED WARRANTIES,        *
  31:RTT/SEGGER_RTT.c **** * INCLUDING, BUT NOT LIMITED TO, THE IMPLIED WARRANTIES OF           *
  32:RTT/SEGGER_RTT.c **** * MERCHANTABILITY AND FITNESS FOR A PARTICULAR PURPOSE ARE           *
ARM GAS  C:\Users\wizar\AppData\Local\Temp\ccRaZdSN.s 			page 2


  33:RTT/SEGGER_RTT.c **** * DISCLAIMED. IN NO EVENT SHALL SEGGER Microcontroller BE LIABLE FOR *
  34:RTT/SEGGER_RTT.c **** * ANY DIRECT, INDIRECT, INCIDENTAL, SPECIAL, EXEMPLARY, OR           *
  35:RTT/SEGGER_RTT.c **** * CONSEQUENTIAL DAMAGES (INCLUDING, BUT NOT LIMITED TO, PROCUREMENT  *
  36:RTT/SEGGER_RTT.c **** * OF SUBSTITUTE GOODS OR SERVICES; LOSS OF USE, DATA, OR PROFITS;    *
  37:RTT/SEGGER_RTT.c **** * OR BUSINESS INTERRUPTION) HOWEVER CAUSED AND ON ANY THEORY OF      *
  38:RTT/SEGGER_RTT.c **** * LIABILITY, WHETHER IN CONTRACT, STRICT LIABILITY, OR TORT          *
  39:RTT/SEGGER_RTT.c **** * (INCLUDING NEGLIGENCE OR OTHERWISE) ARISING IN ANY WAY OUT OF THE  *
  40:RTT/SEGGER_RTT.c **** * USE OF THIS SOFTWARE, EVEN IF ADVISED OF THE POSSIBILITY OF SUCH   *
  41:RTT/SEGGER_RTT.c **** * DAMAGE.                                                            *
  42:RTT/SEGGER_RTT.c **** *                                                                    *
  43:RTT/SEGGER_RTT.c **** **********************************************************************
  44:RTT/SEGGER_RTT.c **** *                                                                    *
  45:RTT/SEGGER_RTT.c **** *       RTT version: 7.86                                           *
  46:RTT/SEGGER_RTT.c **** *                                                                    *
  47:RTT/SEGGER_RTT.c **** **********************************************************************
  48:RTT/SEGGER_RTT.c **** 
  49:RTT/SEGGER_RTT.c **** ---------------------------END-OF-HEADER------------------------------
  50:RTT/SEGGER_RTT.c **** File    : SEGGER_RTT.c
  51:RTT/SEGGER_RTT.c **** Purpose : Implementation of SEGGER real-time transfer (RTT) which
  52:RTT/SEGGER_RTT.c ****           allows real-time communication on targets which support
  53:RTT/SEGGER_RTT.c ****           debugger memory accesses while the CPU is running.
  54:RTT/SEGGER_RTT.c **** Revision: $Rev: 28168 $
  55:RTT/SEGGER_RTT.c **** 
  56:RTT/SEGGER_RTT.c **** Additional information:
  57:RTT/SEGGER_RTT.c ****           Type "int" is assumed to be 32-bits in size
  58:RTT/SEGGER_RTT.c ****           H->T    Host to target communication
  59:RTT/SEGGER_RTT.c ****           T->H    Target to host communication
  60:RTT/SEGGER_RTT.c **** 
  61:RTT/SEGGER_RTT.c ****           RTT channel 0 is always present and reserved for Terminal usage.
  62:RTT/SEGGER_RTT.c ****           Name is fixed to "Terminal"
  63:RTT/SEGGER_RTT.c **** 
  64:RTT/SEGGER_RTT.c ****           Effective buffer size: SizeOfBuffer - 1
  65:RTT/SEGGER_RTT.c **** 
  66:RTT/SEGGER_RTT.c ****           WrOff == RdOff:       Buffer is empty
  67:RTT/SEGGER_RTT.c ****           WrOff == (RdOff - 1): Buffer is full
  68:RTT/SEGGER_RTT.c ****           WrOff >  RdOff:       Free space includes wrap-around
  69:RTT/SEGGER_RTT.c ****           WrOff <  RdOff:       Used space includes wrap-around
  70:RTT/SEGGER_RTT.c ****           (WrOff == (SizeOfBuffer - 1)) && (RdOff == 0):  
  71:RTT/SEGGER_RTT.c ****                                 Buffer full and wrap-around after next byte
  72:RTT/SEGGER_RTT.c **** 
  73:RTT/SEGGER_RTT.c **** 
  74:RTT/SEGGER_RTT.c **** ----------------------------------------------------------------------
  75:RTT/SEGGER_RTT.c **** */
  76:RTT/SEGGER_RTT.c **** 
  77:RTT/SEGGER_RTT.c **** #include "SEGGER_RTT.h"
  78:RTT/SEGGER_RTT.c **** 
  79:RTT/SEGGER_RTT.c **** #include <string.h>                 // for memcpy
  80:RTT/SEGGER_RTT.c **** 
  81:RTT/SEGGER_RTT.c **** /*********************************************************************
  82:RTT/SEGGER_RTT.c **** *
  83:RTT/SEGGER_RTT.c **** *       Configuration, default values
  84:RTT/SEGGER_RTT.c **** *
  85:RTT/SEGGER_RTT.c **** **********************************************************************
  86:RTT/SEGGER_RTT.c **** */
  87:RTT/SEGGER_RTT.c **** 
  88:RTT/SEGGER_RTT.c **** #if SEGGER_RTT_CPU_CACHE_LINE_SIZE
  89:RTT/SEGGER_RTT.c ****   #ifdef SEGGER_RTT_CB_ALIGN
ARM GAS  C:\Users\wizar\AppData\Local\Temp\ccRaZdSN.s 			page 3


  90:RTT/SEGGER_RTT.c ****     #error "Custom SEGGER_RTT_CB_ALIGN() is not supported for SEGGER_RTT_CPU_CACHE_LINE_SIZE != 0"
  91:RTT/SEGGER_RTT.c ****   #endif
  92:RTT/SEGGER_RTT.c ****   #ifdef SEGGER_RTT_BUFFER_ALIGN
  93:RTT/SEGGER_RTT.c ****     #error "Custom SEGGER_RTT_BUFFER_ALIGN() is not supported for SEGGER_RTT_CPU_CACHE_LINE_SIZE !=
  94:RTT/SEGGER_RTT.c ****   #endif
  95:RTT/SEGGER_RTT.c ****   #ifdef SEGGER_RTT_PUT_CB_SECTION
  96:RTT/SEGGER_RTT.c ****     #error "Custom SEGGER_RTT_PUT_CB_SECTION() is not supported for SEGGER_RTT_CPU_CACHE_LINE_SIZE 
  97:RTT/SEGGER_RTT.c ****   #endif
  98:RTT/SEGGER_RTT.c ****   #ifdef SEGGER_RTT_PUT_BUFFER_SECTION
  99:RTT/SEGGER_RTT.c ****     #error "Custom SEGGER_RTT_PUT_BUFFER_SECTION() is not supported for SEGGER_RTT_CPU_CACHE_LINE_S
 100:RTT/SEGGER_RTT.c ****   #endif
 101:RTT/SEGGER_RTT.c ****   #ifdef SEGGER_RTT_BUFFER_ALIGNMENT
 102:RTT/SEGGER_RTT.c ****     #error "Custom SEGGER_RTT_BUFFER_ALIGNMENT is not supported for SEGGER_RTT_CPU_CACHE_LINE_SIZE 
 103:RTT/SEGGER_RTT.c ****   #endif
 104:RTT/SEGGER_RTT.c ****   #ifdef SEGGER_RTT_ALIGNMENT
 105:RTT/SEGGER_RTT.c ****     #error "Custom SEGGER_RTT_ALIGNMENT is not supported for SEGGER_RTT_CPU_CACHE_LINE_SIZE != 0"
 106:RTT/SEGGER_RTT.c ****   #endif
 107:RTT/SEGGER_RTT.c **** #endif
 108:RTT/SEGGER_RTT.c **** 
 109:RTT/SEGGER_RTT.c **** #ifndef   BUFFER_SIZE_UP
 110:RTT/SEGGER_RTT.c ****   #define BUFFER_SIZE_UP                                  1024  // Size of the buffer for terminal 
 111:RTT/SEGGER_RTT.c **** #endif
 112:RTT/SEGGER_RTT.c **** 
 113:RTT/SEGGER_RTT.c **** #ifndef   BUFFER_SIZE_DOWN
 114:RTT/SEGGER_RTT.c ****   #define BUFFER_SIZE_DOWN                                16    // Size of the buffer for terminal 
 115:RTT/SEGGER_RTT.c **** #endif
 116:RTT/SEGGER_RTT.c **** 
 117:RTT/SEGGER_RTT.c **** #ifndef   SEGGER_RTT_MAX_NUM_UP_BUFFERS
 118:RTT/SEGGER_RTT.c ****   #define SEGGER_RTT_MAX_NUM_UP_BUFFERS                    2    // Number of up-buffers (T->H) avai
 119:RTT/SEGGER_RTT.c **** #endif
 120:RTT/SEGGER_RTT.c **** 
 121:RTT/SEGGER_RTT.c **** #ifndef   SEGGER_RTT_MAX_NUM_DOWN_BUFFERS
 122:RTT/SEGGER_RTT.c ****   #define SEGGER_RTT_MAX_NUM_DOWN_BUFFERS                  2    // Number of down-buffers (H->T) av
 123:RTT/SEGGER_RTT.c **** #endif
 124:RTT/SEGGER_RTT.c **** 
 125:RTT/SEGGER_RTT.c **** #ifndef SEGGER_RTT_BUFFER_SECTION
 126:RTT/SEGGER_RTT.c ****   #if defined(SEGGER_RTT_SECTION)
 127:RTT/SEGGER_RTT.c ****     #define SEGGER_RTT_BUFFER_SECTION SEGGER_RTT_SECTION
 128:RTT/SEGGER_RTT.c ****   #endif
 129:RTT/SEGGER_RTT.c **** #endif
 130:RTT/SEGGER_RTT.c **** 
 131:RTT/SEGGER_RTT.c **** #ifndef   SEGGER_RTT_ALIGNMENT
 132:RTT/SEGGER_RTT.c ****   #define SEGGER_RTT_ALIGNMENT                            SEGGER_RTT_CPU_CACHE_LINE_SIZE
 133:RTT/SEGGER_RTT.c **** #endif
 134:RTT/SEGGER_RTT.c **** 
 135:RTT/SEGGER_RTT.c **** #ifndef   SEGGER_RTT_BUFFER_ALIGNMENT
 136:RTT/SEGGER_RTT.c ****   #define SEGGER_RTT_BUFFER_ALIGNMENT                     SEGGER_RTT_CPU_CACHE_LINE_SIZE
 137:RTT/SEGGER_RTT.c **** #endif
 138:RTT/SEGGER_RTT.c **** 
 139:RTT/SEGGER_RTT.c **** #ifndef   SEGGER_RTT_MODE_DEFAULT
 140:RTT/SEGGER_RTT.c ****   #define SEGGER_RTT_MODE_DEFAULT                         SEGGER_RTT_MODE_NO_BLOCK_SKIP
 141:RTT/SEGGER_RTT.c **** #endif
 142:RTT/SEGGER_RTT.c **** 
 143:RTT/SEGGER_RTT.c **** #ifndef   SEGGER_RTT_LOCK
 144:RTT/SEGGER_RTT.c ****   #define SEGGER_RTT_LOCK()
 145:RTT/SEGGER_RTT.c **** #endif
 146:RTT/SEGGER_RTT.c **** 
ARM GAS  C:\Users\wizar\AppData\Local\Temp\ccRaZdSN.s 			page 4


 147:RTT/SEGGER_RTT.c **** #ifndef   SEGGER_RTT_UNLOCK
 148:RTT/SEGGER_RTT.c ****   #define SEGGER_RTT_UNLOCK()
 149:RTT/SEGGER_RTT.c **** #endif
 150:RTT/SEGGER_RTT.c **** 
 151:RTT/SEGGER_RTT.c **** #ifndef   STRLEN
 152:RTT/SEGGER_RTT.c ****   #define STRLEN(a)                                       strlen((a))
 153:RTT/SEGGER_RTT.c **** #endif
 154:RTT/SEGGER_RTT.c **** 
 155:RTT/SEGGER_RTT.c **** #ifndef   STRCPY
 156:RTT/SEGGER_RTT.c ****   #define STRCPY(pDest, pSrc)                             strcpy((pDest), (pSrc))
 157:RTT/SEGGER_RTT.c **** #endif
 158:RTT/SEGGER_RTT.c **** 
 159:RTT/SEGGER_RTT.c **** #ifndef   SEGGER_RTT_MEMCPY_USE_BYTELOOP
 160:RTT/SEGGER_RTT.c ****   #define SEGGER_RTT_MEMCPY_USE_BYTELOOP                  0
 161:RTT/SEGGER_RTT.c **** #endif
 162:RTT/SEGGER_RTT.c **** 
 163:RTT/SEGGER_RTT.c **** #ifndef   SEGGER_RTT_MEMCPY
 164:RTT/SEGGER_RTT.c ****   #ifdef  MEMCPY
 165:RTT/SEGGER_RTT.c ****     #define SEGGER_RTT_MEMCPY(pDest, pSrc, NumBytes)      MEMCPY((pDest), (pSrc), (NumBytes))
 166:RTT/SEGGER_RTT.c ****   #else
 167:RTT/SEGGER_RTT.c ****     #define SEGGER_RTT_MEMCPY(pDest, pSrc, NumBytes)      memcpy((pDest), (pSrc), (NumBytes))
 168:RTT/SEGGER_RTT.c ****   #endif
 169:RTT/SEGGER_RTT.c **** #endif
 170:RTT/SEGGER_RTT.c **** 
 171:RTT/SEGGER_RTT.c **** #ifndef   MIN
 172:RTT/SEGGER_RTT.c ****   #define MIN(a, b)         (((a) < (b)) ? (a) : (b))
 173:RTT/SEGGER_RTT.c **** #endif
 174:RTT/SEGGER_RTT.c **** 
 175:RTT/SEGGER_RTT.c **** #ifndef   MAX
 176:RTT/SEGGER_RTT.c ****   #define MAX(a, b)         (((a) > (b)) ? (a) : (b))
 177:RTT/SEGGER_RTT.c **** #endif
 178:RTT/SEGGER_RTT.c **** //
 179:RTT/SEGGER_RTT.c **** // For some environments, NULL may not be defined until certain headers are included
 180:RTT/SEGGER_RTT.c **** //
 181:RTT/SEGGER_RTT.c **** #ifndef NULL
 182:RTT/SEGGER_RTT.c ****   #define NULL 0
 183:RTT/SEGGER_RTT.c **** #endif
 184:RTT/SEGGER_RTT.c **** 
 185:RTT/SEGGER_RTT.c **** /*********************************************************************
 186:RTT/SEGGER_RTT.c **** *
 187:RTT/SEGGER_RTT.c **** *       Defines, fixed
 188:RTT/SEGGER_RTT.c **** *
 189:RTT/SEGGER_RTT.c **** **********************************************************************
 190:RTT/SEGGER_RTT.c **** */
 191:RTT/SEGGER_RTT.c **** #if (defined __ICCARM__) || (defined __ICCRX__)
 192:RTT/SEGGER_RTT.c ****   #define RTT_PRAGMA(P) _Pragma(#P)
 193:RTT/SEGGER_RTT.c **** #endif
 194:RTT/SEGGER_RTT.c **** 
 195:RTT/SEGGER_RTT.c **** #if SEGGER_RTT_ALIGNMENT || SEGGER_RTT_BUFFER_ALIGNMENT
 196:RTT/SEGGER_RTT.c ****   #if ((defined __GNUC__) || (defined __clang__))
 197:RTT/SEGGER_RTT.c ****     #define SEGGER_RTT_ALIGN(Var, Alignment) Var __attribute__ ((aligned (Alignment)))
 198:RTT/SEGGER_RTT.c ****   #elif (defined __ICCARM__) || (defined __ICCRX__)
 199:RTT/SEGGER_RTT.c ****     #define PRAGMA(A) _Pragma(#A)
 200:RTT/SEGGER_RTT.c **** #define SEGGER_RTT_ALIGN(Var, Alignment) RTT_PRAGMA(data_alignment=Alignment) \
 201:RTT/SEGGER_RTT.c ****                                   Var
 202:RTT/SEGGER_RTT.c ****   #elif (defined __CC_ARM)
 203:RTT/SEGGER_RTT.c ****     #define SEGGER_RTT_ALIGN(Var, Alignment) Var __attribute__ ((aligned (Alignment)))
ARM GAS  C:\Users\wizar\AppData\Local\Temp\ccRaZdSN.s 			page 5


 204:RTT/SEGGER_RTT.c ****   #else
 205:RTT/SEGGER_RTT.c ****     #error "Alignment not supported for this compiler."
 206:RTT/SEGGER_RTT.c ****   #endif
 207:RTT/SEGGER_RTT.c **** #else
 208:RTT/SEGGER_RTT.c ****   #define SEGGER_RTT_ALIGN(Var, Alignment) Var
 209:RTT/SEGGER_RTT.c **** #endif
 210:RTT/SEGGER_RTT.c **** 
 211:RTT/SEGGER_RTT.c **** #if defined(SEGGER_RTT_SECTION) || defined (SEGGER_RTT_BUFFER_SECTION)
 212:RTT/SEGGER_RTT.c ****   #if ((defined __GNUC__) || (defined __clang__))
 213:RTT/SEGGER_RTT.c ****     #define SEGGER_RTT_PUT_SECTION(Var, Section) __attribute__ ((section (Section))) Var
 214:RTT/SEGGER_RTT.c ****   #elif (defined __ICCARM__) || (defined __ICCRX__)
 215:RTT/SEGGER_RTT.c **** #define SEGGER_RTT_PUT_SECTION(Var, Section) RTT_PRAGMA(location=Section) \
 216:RTT/SEGGER_RTT.c ****                                         Var
 217:RTT/SEGGER_RTT.c ****   #elif (defined __CC_ARM)
 218:RTT/SEGGER_RTT.c ****     #define SEGGER_RTT_PUT_SECTION(Var, Section) __attribute__ ((section (Section), zero_init))  Va
 219:RTT/SEGGER_RTT.c ****   #else
 220:RTT/SEGGER_RTT.c ****     #error "Section placement not supported for this compiler."
 221:RTT/SEGGER_RTT.c ****   #endif
 222:RTT/SEGGER_RTT.c **** #else
 223:RTT/SEGGER_RTT.c ****   #define SEGGER_RTT_PUT_SECTION(Var, Section) Var
 224:RTT/SEGGER_RTT.c **** #endif
 225:RTT/SEGGER_RTT.c **** 
 226:RTT/SEGGER_RTT.c **** #if SEGGER_RTT_ALIGNMENT
 227:RTT/SEGGER_RTT.c ****   #define SEGGER_RTT_CB_ALIGN(Var)  SEGGER_RTT_ALIGN(Var, SEGGER_RTT_ALIGNMENT)
 228:RTT/SEGGER_RTT.c **** #else
 229:RTT/SEGGER_RTT.c ****   #define SEGGER_RTT_CB_ALIGN(Var)  Var
 230:RTT/SEGGER_RTT.c **** #endif
 231:RTT/SEGGER_RTT.c **** 
 232:RTT/SEGGER_RTT.c **** #if SEGGER_RTT_BUFFER_ALIGNMENT
 233:RTT/SEGGER_RTT.c ****   #define SEGGER_RTT_BUFFER_ALIGN(Var)  SEGGER_RTT_ALIGN(Var, SEGGER_RTT_BUFFER_ALIGNMENT)
 234:RTT/SEGGER_RTT.c **** #else
 235:RTT/SEGGER_RTT.c ****   #define SEGGER_RTT_BUFFER_ALIGN(Var)  Var
 236:RTT/SEGGER_RTT.c **** #endif
 237:RTT/SEGGER_RTT.c **** 
 238:RTT/SEGGER_RTT.c **** 
 239:RTT/SEGGER_RTT.c **** #if defined(SEGGER_RTT_SECTION)
 240:RTT/SEGGER_RTT.c ****   #define SEGGER_RTT_PUT_CB_SECTION(Var) SEGGER_RTT_PUT_SECTION(Var, SEGGER_RTT_SECTION)
 241:RTT/SEGGER_RTT.c **** #else
 242:RTT/SEGGER_RTT.c ****   #define SEGGER_RTT_PUT_CB_SECTION(Var) Var
 243:RTT/SEGGER_RTT.c **** #endif
 244:RTT/SEGGER_RTT.c **** 
 245:RTT/SEGGER_RTT.c **** #if defined(SEGGER_RTT_BUFFER_SECTION)
 246:RTT/SEGGER_RTT.c ****   #define SEGGER_RTT_PUT_BUFFER_SECTION(Var) SEGGER_RTT_PUT_SECTION(Var, SEGGER_RTT_BUFFER_SECTION)
 247:RTT/SEGGER_RTT.c **** #else
 248:RTT/SEGGER_RTT.c ****   #define SEGGER_RTT_PUT_BUFFER_SECTION(Var) Var
 249:RTT/SEGGER_RTT.c **** #endif
 250:RTT/SEGGER_RTT.c **** 
 251:RTT/SEGGER_RTT.c **** /*********************************************************************
 252:RTT/SEGGER_RTT.c **** *
 253:RTT/SEGGER_RTT.c **** *       Static const data
 254:RTT/SEGGER_RTT.c **** *
 255:RTT/SEGGER_RTT.c **** **********************************************************************
 256:RTT/SEGGER_RTT.c **** */
 257:RTT/SEGGER_RTT.c **** 
 258:RTT/SEGGER_RTT.c **** static unsigned char _aTerminalId[16] = { '0', '1', '2', '3', '4', '5', '6', '7', '8', '9', 'A', 'B
 259:RTT/SEGGER_RTT.c **** 
 260:RTT/SEGGER_RTT.c **** /*********************************************************************
ARM GAS  C:\Users\wizar\AppData\Local\Temp\ccRaZdSN.s 			page 6


 261:RTT/SEGGER_RTT.c **** *
 262:RTT/SEGGER_RTT.c **** *       Static data
 263:RTT/SEGGER_RTT.c **** *
 264:RTT/SEGGER_RTT.c **** **********************************************************************
 265:RTT/SEGGER_RTT.c **** */
 266:RTT/SEGGER_RTT.c **** 
 267:RTT/SEGGER_RTT.c **** //
 268:RTT/SEGGER_RTT.c **** // RTT Control Block and allocate buffers for channel 0
 269:RTT/SEGGER_RTT.c **** //
 270:RTT/SEGGER_RTT.c **** #if SEGGER_RTT_CPU_CACHE_LINE_SIZE
 271:RTT/SEGGER_RTT.c ****   #if ((defined __GNUC__) || (defined __clang__))
 272:RTT/SEGGER_RTT.c ****     SEGGER_RTT_CB _SEGGER_RTT                                                             __attribu
 273:RTT/SEGGER_RTT.c ****     static char   _acUpBuffer  [SEGGER_RTT__ROUND_UP_2_CACHE_LINE_SIZE(BUFFER_SIZE_UP)]   __attribu
 274:RTT/SEGGER_RTT.c ****     static char   _acDownBuffer[SEGGER_RTT__ROUND_UP_2_CACHE_LINE_SIZE(BUFFER_SIZE_DOWN)] __attribu
 275:RTT/SEGGER_RTT.c ****   #elif (defined __ICCARM__)
 276:RTT/SEGGER_RTT.c ****     #pragma data_alignment=SEGGER_RTT_CPU_CACHE_LINE_SIZE
 277:RTT/SEGGER_RTT.c ****     SEGGER_RTT_CB _SEGGER_RTT;
 278:RTT/SEGGER_RTT.c ****     #pragma data_alignment=SEGGER_RTT_CPU_CACHE_LINE_SIZE
 279:RTT/SEGGER_RTT.c ****     static char   _acUpBuffer  [SEGGER_RTT__ROUND_UP_2_CACHE_LINE_SIZE(BUFFER_SIZE_UP)];
 280:RTT/SEGGER_RTT.c ****     #pragma data_alignment=SEGGER_RTT_CPU_CACHE_LINE_SIZE
 281:RTT/SEGGER_RTT.c ****     static char   _acDownBuffer[SEGGER_RTT__ROUND_UP_2_CACHE_LINE_SIZE(BUFFER_SIZE_DOWN)];
 282:RTT/SEGGER_RTT.c ****   #else
 283:RTT/SEGGER_RTT.c ****     #error "Don't know how to place _SEGGER_RTT, _acUpBuffer, _acDownBuffer cache-line aligned"
 284:RTT/SEGGER_RTT.c ****   #endif
 285:RTT/SEGGER_RTT.c **** #else
 286:RTT/SEGGER_RTT.c ****   SEGGER_RTT_PUT_CB_SECTION(SEGGER_RTT_CB_ALIGN(SEGGER_RTT_CB _SEGGER_RTT));
 287:RTT/SEGGER_RTT.c ****   SEGGER_RTT_PUT_BUFFER_SECTION(SEGGER_RTT_BUFFER_ALIGN(static char _acUpBuffer  [BUFFER_SIZE_UP]))
 288:RTT/SEGGER_RTT.c ****   SEGGER_RTT_PUT_BUFFER_SECTION(SEGGER_RTT_BUFFER_ALIGN(static char _acDownBuffer[BUFFER_SIZE_DOWN]
 289:RTT/SEGGER_RTT.c **** #endif
 290:RTT/SEGGER_RTT.c **** 
 291:RTT/SEGGER_RTT.c **** static unsigned char _ActiveTerminal;
 292:RTT/SEGGER_RTT.c **** 
 293:RTT/SEGGER_RTT.c **** /*********************************************************************
 294:RTT/SEGGER_RTT.c **** *
 295:RTT/SEGGER_RTT.c **** *       Static functions
 296:RTT/SEGGER_RTT.c **** *
 297:RTT/SEGGER_RTT.c **** **********************************************************************
 298:RTT/SEGGER_RTT.c **** */
 299:RTT/SEGGER_RTT.c **** 
 300:RTT/SEGGER_RTT.c **** /*********************************************************************
 301:RTT/SEGGER_RTT.c **** *
 302:RTT/SEGGER_RTT.c **** *       _DoInit()
 303:RTT/SEGGER_RTT.c **** *
 304:RTT/SEGGER_RTT.c **** *  Function description
 305:RTT/SEGGER_RTT.c **** *    Initializes the control block an buffers.
 306:RTT/SEGGER_RTT.c **** *    May only be called via INIT() to avoid overriding settings.
 307:RTT/SEGGER_RTT.c **** *
 308:RTT/SEGGER_RTT.c **** */
 309:RTT/SEGGER_RTT.c **** #define INIT()  {                                                                                  
 310:RTT/SEGGER_RTT.c ****                   volatile SEGGER_RTT_CB* pRTTCBInit;                                              
 311:RTT/SEGGER_RTT.c ****                   pRTTCBInit = (volatile SEGGER_RTT_CB*)((char*)&_SEGGER_RTT + SEGGER_RTT_UNCACHED_
 312:RTT/SEGGER_RTT.c ****                   do {                                                                             
 313:RTT/SEGGER_RTT.c ****                     if (pRTTCBInit->acID[0] == '\0') {                                             
 314:RTT/SEGGER_RTT.c ****                       _DoInit();                                                                   
 315:RTT/SEGGER_RTT.c ****                     }                                                                              
 316:RTT/SEGGER_RTT.c ****                   } while (0);                                                                     
 317:RTT/SEGGER_RTT.c ****                 }
ARM GAS  C:\Users\wizar\AppData\Local\Temp\ccRaZdSN.s 			page 7


 318:RTT/SEGGER_RTT.c **** 
 319:RTT/SEGGER_RTT.c **** static void _DoInit(void) {
 320:RTT/SEGGER_RTT.c ****   volatile SEGGER_RTT_CB* p;   // Volatile to make sure that compiler cannot change the order of ac
 321:RTT/SEGGER_RTT.c ****   static const char _aInitStr[] = "\0\0\0\0\0\0TTR REGGES";  // Init complete ID string to make sur
 322:RTT/SEGGER_RTT.c ****   unsigned i;
 323:RTT/SEGGER_RTT.c ****   //
 324:RTT/SEGGER_RTT.c ****   // Initialize control block
 325:RTT/SEGGER_RTT.c ****   //
 326:RTT/SEGGER_RTT.c ****   p                     = (volatile SEGGER_RTT_CB*)((char*)&_SEGGER_RTT + SEGGER_RTT_UNCACHED_OFF);
 327:RTT/SEGGER_RTT.c ****   memset((SEGGER_RTT_CB*)p, 0, sizeof(_SEGGER_RTT));         // Make sure that the RTT CB is always
 328:RTT/SEGGER_RTT.c ****   p->MaxNumUpBuffers    = SEGGER_RTT_MAX_NUM_UP_BUFFERS;
 329:RTT/SEGGER_RTT.c ****   p->MaxNumDownBuffers  = SEGGER_RTT_MAX_NUM_DOWN_BUFFERS;
 330:RTT/SEGGER_RTT.c ****   //
 331:RTT/SEGGER_RTT.c ****   // Initialize up buffer 0
 332:RTT/SEGGER_RTT.c ****   //
 333:RTT/SEGGER_RTT.c ****   p->aUp[0].sName         = "Terminal";
 334:RTT/SEGGER_RTT.c ****   p->aUp[0].pBuffer       = _acUpBuffer;
 335:RTT/SEGGER_RTT.c ****   p->aUp[0].SizeOfBuffer  = BUFFER_SIZE_UP;
 336:RTT/SEGGER_RTT.c ****   p->aUp[0].RdOff         = 0u;
 337:RTT/SEGGER_RTT.c ****   p->aUp[0].WrOff         = 0u;
 338:RTT/SEGGER_RTT.c ****   p->aUp[0].Flags         = SEGGER_RTT_MODE_DEFAULT;
 339:RTT/SEGGER_RTT.c ****   //
 340:RTT/SEGGER_RTT.c ****   // Initialize down buffer 0
 341:RTT/SEGGER_RTT.c ****   //
 342:RTT/SEGGER_RTT.c ****   p->aDown[0].sName         = "Terminal";
 343:RTT/SEGGER_RTT.c ****   p->aDown[0].pBuffer       = _acDownBuffer;
 344:RTT/SEGGER_RTT.c ****   p->aDown[0].SizeOfBuffer  = BUFFER_SIZE_DOWN;
 345:RTT/SEGGER_RTT.c ****   p->aDown[0].RdOff         = 0u;
 346:RTT/SEGGER_RTT.c ****   p->aDown[0].WrOff         = 0u;
 347:RTT/SEGGER_RTT.c ****   p->aDown[0].Flags         = SEGGER_RTT_MODE_DEFAULT;
 348:RTT/SEGGER_RTT.c ****   //
 349:RTT/SEGGER_RTT.c ****   // Finish initialization of the control block.
 350:RTT/SEGGER_RTT.c ****   // Copy Id string backwards to make sure that "SEGGER RTT" is not found in initializer memory (us
 351:RTT/SEGGER_RTT.c ****   // as this would cause J-Link to "find" the control block at a wrong address.
 352:RTT/SEGGER_RTT.c ****   //
 353:RTT/SEGGER_RTT.c ****   RTT__DMB();                       // Force order of memory accesses for cores that may perform ou
 354:RTT/SEGGER_RTT.c ****   for (i = 0; i < sizeof(_aInitStr) - 1; ++i) {
 355:RTT/SEGGER_RTT.c ****     p->acID[i] = _aInitStr[sizeof(_aInitStr) - 2 - i];  // Skip terminating \0 at the end of the ar
 356:RTT/SEGGER_RTT.c ****   }
 357:RTT/SEGGER_RTT.c ****   RTT__DMB();                       // Force order of memory accesses for cores that may perform ou
 358:RTT/SEGGER_RTT.c **** }
 359:RTT/SEGGER_RTT.c **** 
 360:RTT/SEGGER_RTT.c **** /*********************************************************************
 361:RTT/SEGGER_RTT.c **** *
 362:RTT/SEGGER_RTT.c **** *       _WriteBlocking()
 363:RTT/SEGGER_RTT.c **** *
 364:RTT/SEGGER_RTT.c **** *  Function description
 365:RTT/SEGGER_RTT.c **** *    Stores a specified number of characters in SEGGER RTT ring buffer
 366:RTT/SEGGER_RTT.c **** *    and updates the associated write pointer which is periodically
 367:RTT/SEGGER_RTT.c **** *    read by the host.
 368:RTT/SEGGER_RTT.c **** *    The caller is responsible for managing the write chunk sizes as
 369:RTT/SEGGER_RTT.c **** *    _WriteBlocking() will block until all data has been posted successfully.
 370:RTT/SEGGER_RTT.c **** *
 371:RTT/SEGGER_RTT.c **** *  Parameters
 372:RTT/SEGGER_RTT.c **** *    pRing        Ring buffer to post to.
 373:RTT/SEGGER_RTT.c **** *    pBuffer      Pointer to character array. Does not need to point to a \0 terminated string.
 374:RTT/SEGGER_RTT.c **** *    NumBytes     Number of bytes to be stored in the SEGGER RTT control block.
ARM GAS  C:\Users\wizar\AppData\Local\Temp\ccRaZdSN.s 			page 8


 375:RTT/SEGGER_RTT.c **** *
 376:RTT/SEGGER_RTT.c **** *  Return value
 377:RTT/SEGGER_RTT.c **** *    >= 0 - Number of bytes written into buffer.
 378:RTT/SEGGER_RTT.c **** */
 379:RTT/SEGGER_RTT.c **** static unsigned _WriteBlocking(SEGGER_RTT_BUFFER_UP* pRing, const char* pBuffer, unsigned NumBytes)
 380:RTT/SEGGER_RTT.c ****   unsigned NumBytesToWrite;
 381:RTT/SEGGER_RTT.c ****   unsigned NumBytesWritten;
 382:RTT/SEGGER_RTT.c ****   unsigned RdOff;
 383:RTT/SEGGER_RTT.c ****   unsigned WrOff;
 384:RTT/SEGGER_RTT.c ****   volatile char* pDst;
 385:RTT/SEGGER_RTT.c ****   //
 386:RTT/SEGGER_RTT.c ****   // Write data to buffer and handle wrap-around if necessary
 387:RTT/SEGGER_RTT.c ****   //
 388:RTT/SEGGER_RTT.c ****   NumBytesWritten = 0u;
 389:RTT/SEGGER_RTT.c ****   WrOff = pRing->WrOff;
 390:RTT/SEGGER_RTT.c ****   do {
 391:RTT/SEGGER_RTT.c ****     RdOff = pRing->RdOff;                         // May be changed by host (debug probe) in the me
 392:RTT/SEGGER_RTT.c ****     if (RdOff > WrOff) {
 393:RTT/SEGGER_RTT.c ****       NumBytesToWrite = RdOff - WrOff - 1u;
 394:RTT/SEGGER_RTT.c ****     } else {
 395:RTT/SEGGER_RTT.c ****       NumBytesToWrite = pRing->SizeOfBuffer - (WrOff - RdOff + 1u);
 396:RTT/SEGGER_RTT.c ****     }
 397:RTT/SEGGER_RTT.c ****     NumBytesToWrite = MIN(NumBytesToWrite, (pRing->SizeOfBuffer - WrOff));      // Number of bytes 
 398:RTT/SEGGER_RTT.c ****     NumBytesToWrite = MIN(NumBytesToWrite, NumBytes);
 399:RTT/SEGGER_RTT.c ****     pDst = (pRing->pBuffer + WrOff) + SEGGER_RTT_UNCACHED_OFF;
 400:RTT/SEGGER_RTT.c **** #if SEGGER_RTT_MEMCPY_USE_BYTELOOP
 401:RTT/SEGGER_RTT.c ****     NumBytesWritten += NumBytesToWrite;
 402:RTT/SEGGER_RTT.c ****     NumBytes        -= NumBytesToWrite;
 403:RTT/SEGGER_RTT.c ****     WrOff           += NumBytesToWrite;
 404:RTT/SEGGER_RTT.c ****     while (NumBytesToWrite--) {
 405:RTT/SEGGER_RTT.c ****       *pDst++ = *pBuffer++;
 406:RTT/SEGGER_RTT.c ****     };
 407:RTT/SEGGER_RTT.c **** #else
 408:RTT/SEGGER_RTT.c ****     SEGGER_RTT_MEMCPY((void*)pDst, pBuffer, NumBytesToWrite);
 409:RTT/SEGGER_RTT.c ****     NumBytesWritten += NumBytesToWrite;
 410:RTT/SEGGER_RTT.c ****     pBuffer         += NumBytesToWrite;
 411:RTT/SEGGER_RTT.c ****     NumBytes        -= NumBytesToWrite;
 412:RTT/SEGGER_RTT.c ****     WrOff           += NumBytesToWrite;
 413:RTT/SEGGER_RTT.c **** #endif
 414:RTT/SEGGER_RTT.c ****     if (WrOff == pRing->SizeOfBuffer) {
 415:RTT/SEGGER_RTT.c ****       WrOff = 0u;
 416:RTT/SEGGER_RTT.c ****     }
 417:RTT/SEGGER_RTT.c ****     RTT__DMB();                     // Force data write to be complete before writing the <WrOff>, 
 418:RTT/SEGGER_RTT.c ****     pRing->WrOff = WrOff;
 419:RTT/SEGGER_RTT.c ****   } while (NumBytes);
 420:RTT/SEGGER_RTT.c ****   return NumBytesWritten;
 421:RTT/SEGGER_RTT.c **** }
 422:RTT/SEGGER_RTT.c **** 
 423:RTT/SEGGER_RTT.c **** /*********************************************************************
 424:RTT/SEGGER_RTT.c **** *
 425:RTT/SEGGER_RTT.c **** *       _WriteNoCheck()
 426:RTT/SEGGER_RTT.c **** *
 427:RTT/SEGGER_RTT.c **** *  Function description
 428:RTT/SEGGER_RTT.c **** *    Stores a specified number of characters in SEGGER RTT ring buffer
 429:RTT/SEGGER_RTT.c **** *    and updates the associated write pointer which is periodically
 430:RTT/SEGGER_RTT.c **** *    read by the host.
 431:RTT/SEGGER_RTT.c **** *    It is callers responsibility to make sure data actually fits in buffer.
ARM GAS  C:\Users\wizar\AppData\Local\Temp\ccRaZdSN.s 			page 9


 432:RTT/SEGGER_RTT.c **** *
 433:RTT/SEGGER_RTT.c **** *  Parameters
 434:RTT/SEGGER_RTT.c **** *    pRing        Ring buffer to post to.
 435:RTT/SEGGER_RTT.c **** *    pBuffer      Pointer to character array. Does not need to point to a \0 terminated string.
 436:RTT/SEGGER_RTT.c **** *    NumBytes     Number of bytes to be stored in the SEGGER RTT control block.
 437:RTT/SEGGER_RTT.c **** *
 438:RTT/SEGGER_RTT.c **** *  Notes
 439:RTT/SEGGER_RTT.c **** *    (1) If there might not be enough space in the "Up"-buffer, call _WriteBlocking
 440:RTT/SEGGER_RTT.c **** */
 441:RTT/SEGGER_RTT.c **** static void _WriteNoCheck(SEGGER_RTT_BUFFER_UP* pRing, const char* pData, unsigned NumBytes) {
 442:RTT/SEGGER_RTT.c ****   unsigned NumBytesAtOnce;
 443:RTT/SEGGER_RTT.c ****   unsigned WrOff;
 444:RTT/SEGGER_RTT.c ****   unsigned Rem;
 445:RTT/SEGGER_RTT.c ****   volatile char* pDst;
 446:RTT/SEGGER_RTT.c **** 
 447:RTT/SEGGER_RTT.c ****   WrOff = pRing->WrOff;
 448:RTT/SEGGER_RTT.c ****   Rem = pRing->SizeOfBuffer - WrOff;
 449:RTT/SEGGER_RTT.c ****   if (Rem > NumBytes) {
 450:RTT/SEGGER_RTT.c ****     //
 451:RTT/SEGGER_RTT.c ****     // All data fits before wrap around
 452:RTT/SEGGER_RTT.c ****     //
 453:RTT/SEGGER_RTT.c ****     pDst = (pRing->pBuffer + WrOff) + SEGGER_RTT_UNCACHED_OFF;
 454:RTT/SEGGER_RTT.c **** #if SEGGER_RTT_MEMCPY_USE_BYTELOOP
 455:RTT/SEGGER_RTT.c ****     WrOff += NumBytes;
 456:RTT/SEGGER_RTT.c ****     while (NumBytes--) {
 457:RTT/SEGGER_RTT.c ****       *pDst++ = *pData++;
 458:RTT/SEGGER_RTT.c ****     };
 459:RTT/SEGGER_RTT.c ****     RTT__DMB();                     // Force data write to be complete before writing the <WrOff>, 
 460:RTT/SEGGER_RTT.c ****     pRing->WrOff = WrOff;
 461:RTT/SEGGER_RTT.c **** #else
 462:RTT/SEGGER_RTT.c ****     SEGGER_RTT_MEMCPY((void*)pDst, pData, NumBytes);
 463:RTT/SEGGER_RTT.c ****     RTT__DMB();                     // Force data write to be complete before writing the <WrOff>, 
 464:RTT/SEGGER_RTT.c ****     pRing->WrOff = WrOff + NumBytes;
 465:RTT/SEGGER_RTT.c **** #endif
 466:RTT/SEGGER_RTT.c ****   } else {
 467:RTT/SEGGER_RTT.c ****     //
 468:RTT/SEGGER_RTT.c ****     // We reach the end of the buffer, so need to wrap around
 469:RTT/SEGGER_RTT.c ****     //
 470:RTT/SEGGER_RTT.c **** #if SEGGER_RTT_MEMCPY_USE_BYTELOOP
 471:RTT/SEGGER_RTT.c ****     pDst = (pRing->pBuffer + WrOff) + SEGGER_RTT_UNCACHED_OFF;
 472:RTT/SEGGER_RTT.c ****     NumBytesAtOnce = Rem;
 473:RTT/SEGGER_RTT.c ****     while (NumBytesAtOnce--) {
 474:RTT/SEGGER_RTT.c ****       *pDst++ = *pData++;
 475:RTT/SEGGER_RTT.c ****     };
 476:RTT/SEGGER_RTT.c ****     pDst = pRing->pBuffer + SEGGER_RTT_UNCACHED_OFF;
 477:RTT/SEGGER_RTT.c ****     NumBytesAtOnce = NumBytes - Rem;
 478:RTT/SEGGER_RTT.c ****     while (NumBytesAtOnce--) {
 479:RTT/SEGGER_RTT.c ****       *pDst++ = *pData++;
 480:RTT/SEGGER_RTT.c ****     };
 481:RTT/SEGGER_RTT.c ****     RTT__DMB();                     // Force data write to be complete before writing the <WrOff>, 
 482:RTT/SEGGER_RTT.c ****     pRing->WrOff = NumBytes - Rem;
 483:RTT/SEGGER_RTT.c **** #else
 484:RTT/SEGGER_RTT.c ****     NumBytesAtOnce = Rem;
 485:RTT/SEGGER_RTT.c ****     pDst = (pRing->pBuffer + WrOff) + SEGGER_RTT_UNCACHED_OFF;
 486:RTT/SEGGER_RTT.c ****     SEGGER_RTT_MEMCPY((void*)pDst, pData, NumBytesAtOnce);
 487:RTT/SEGGER_RTT.c ****     NumBytesAtOnce = NumBytes - Rem;
 488:RTT/SEGGER_RTT.c ****     pDst = pRing->pBuffer + SEGGER_RTT_UNCACHED_OFF;
ARM GAS  C:\Users\wizar\AppData\Local\Temp\ccRaZdSN.s 			page 10


 489:RTT/SEGGER_RTT.c ****     SEGGER_RTT_MEMCPY((void*)pDst, pData + Rem, NumBytesAtOnce);
 490:RTT/SEGGER_RTT.c ****     RTT__DMB();                     // Force data write to be complete before writing the <WrOff>, 
 491:RTT/SEGGER_RTT.c ****     pRing->WrOff = NumBytesAtOnce;
 492:RTT/SEGGER_RTT.c **** #endif
 493:RTT/SEGGER_RTT.c ****   }
 494:RTT/SEGGER_RTT.c **** }
 495:RTT/SEGGER_RTT.c **** 
 496:RTT/SEGGER_RTT.c **** /*********************************************************************
 497:RTT/SEGGER_RTT.c **** *
 498:RTT/SEGGER_RTT.c **** *       _PostTerminalSwitch()
 499:RTT/SEGGER_RTT.c **** *
 500:RTT/SEGGER_RTT.c **** *  Function description
 501:RTT/SEGGER_RTT.c **** *    Switch terminal to the given terminal ID.  It is the caller's
 502:RTT/SEGGER_RTT.c **** *    responsibility to ensure the terminal ID is correct and there is
 503:RTT/SEGGER_RTT.c **** *    enough space in the buffer for this to complete successfully.
 504:RTT/SEGGER_RTT.c **** *
 505:RTT/SEGGER_RTT.c **** *  Parameters
 506:RTT/SEGGER_RTT.c **** *    pRing        Ring buffer to post to.
 507:RTT/SEGGER_RTT.c **** *    TerminalId   Terminal ID to switch to.
 508:RTT/SEGGER_RTT.c **** */
 509:RTT/SEGGER_RTT.c **** static void _PostTerminalSwitch(SEGGER_RTT_BUFFER_UP* pRing, unsigned char TerminalId) {
 510:RTT/SEGGER_RTT.c ****   unsigned char ac[2];
 511:RTT/SEGGER_RTT.c **** 
 512:RTT/SEGGER_RTT.c ****   ac[0] = 0xFFu;
 513:RTT/SEGGER_RTT.c ****   ac[1] = _aTerminalId[TerminalId];  // Caller made already sure that TerminalId does not exceed ou
 514:RTT/SEGGER_RTT.c ****   _WriteBlocking(pRing, (const char*)ac, 2u);
 515:RTT/SEGGER_RTT.c **** }
 516:RTT/SEGGER_RTT.c **** 
 517:RTT/SEGGER_RTT.c **** /*********************************************************************
 518:RTT/SEGGER_RTT.c **** *
 519:RTT/SEGGER_RTT.c **** *       _GetAvailWriteSpace()
 520:RTT/SEGGER_RTT.c **** *
 521:RTT/SEGGER_RTT.c **** *  Function description
 522:RTT/SEGGER_RTT.c **** *    Returns the number of bytes that can be written to the ring
 523:RTT/SEGGER_RTT.c **** *    buffer without blocking.
 524:RTT/SEGGER_RTT.c **** *
 525:RTT/SEGGER_RTT.c **** *  Parameters
 526:RTT/SEGGER_RTT.c **** *    pRing        Ring buffer to check.
 527:RTT/SEGGER_RTT.c **** *
 528:RTT/SEGGER_RTT.c **** *  Return value
 529:RTT/SEGGER_RTT.c **** *    Number of bytes that are free in the buffer.
 530:RTT/SEGGER_RTT.c **** */
 531:RTT/SEGGER_RTT.c **** static unsigned _GetAvailWriteSpace(SEGGER_RTT_BUFFER_UP* pRing) {
  27              		.loc 1 531 66 view -0
  28              		.cfi_startproc
  29              		@ args = 0, pretend = 0, frame = 0
  30              		@ frame_needed = 0, uses_anonymous_args = 0
  31              		@ link register save eliminated.
 532:RTT/SEGGER_RTT.c ****   unsigned RdOff;
  32              		.loc 1 532 3 view .LVU1
 533:RTT/SEGGER_RTT.c ****   unsigned WrOff;
  33              		.loc 1 533 3 view .LVU2
 534:RTT/SEGGER_RTT.c ****   unsigned r;
  34              		.loc 1 534 3 view .LVU3
 535:RTT/SEGGER_RTT.c ****   //
 536:RTT/SEGGER_RTT.c ****   // Avoid warnings regarding volatile access order.  It's not a problem
 537:RTT/SEGGER_RTT.c ****   // in this case, but dampen compiler enthusiasm.
ARM GAS  C:\Users\wizar\AppData\Local\Temp\ccRaZdSN.s 			page 11


 538:RTT/SEGGER_RTT.c ****   //
 539:RTT/SEGGER_RTT.c ****   RdOff = pRing->RdOff;
  35              		.loc 1 539 3 view .LVU4
  36              		.loc 1 539 9 is_stmt 0 view .LVU5
  37 0000 0369     		ldr	r3, [r0, #16]
  38              	.LVL1:
 540:RTT/SEGGER_RTT.c ****   WrOff = pRing->WrOff;
  39              		.loc 1 540 3 is_stmt 1 view .LVU6
  40              		.loc 1 540 9 is_stmt 0 view .LVU7
  41 0002 C268     		ldr	r2, [r0, #12]
  42              	.LVL2:
 541:RTT/SEGGER_RTT.c ****   if (RdOff <= WrOff) {
  43              		.loc 1 541 3 is_stmt 1 view .LVU8
  44              		.loc 1 541 6 is_stmt 0 view .LVU9
  45 0004 9342     		cmp	r3, r2
  46 0006 04D8     		bhi	.L2
 542:RTT/SEGGER_RTT.c ****     r = pRing->SizeOfBuffer - 1u - WrOff + RdOff;
  47              		.loc 1 542 5 is_stmt 1 view .LVU10
  48              		.loc 1 542 14 is_stmt 0 view .LVU11
  49 0008 8068     		ldr	r0, [r0, #8]
  50              	.LVL3:
  51              		.loc 1 542 34 view .LVU12
  52 000a 801A     		subs	r0, r0, r2
  53              		.loc 1 542 42 view .LVU13
  54 000c 0344     		add	r3, r3, r0
  55              	.LVL4:
  56              		.loc 1 542 7 view .LVU14
  57 000e 581E     		subs	r0, r3, #1
  58              	.LVL5:
  59              		.loc 1 542 7 view .LVU15
  60 0010 7047     		bx	lr
  61              	.LVL6:
  62              	.L2:
 543:RTT/SEGGER_RTT.c ****   } else {
 544:RTT/SEGGER_RTT.c ****     r = RdOff - WrOff - 1u;
  63              		.loc 1 544 5 is_stmt 1 view .LVU16
  64              		.loc 1 544 15 is_stmt 0 view .LVU17
  65 0012 9B1A     		subs	r3, r3, r2
  66              	.LVL7:
  67              		.loc 1 544 7 view .LVU18
  68 0014 581E     		subs	r0, r3, #1
  69              	.LVL8:
 545:RTT/SEGGER_RTT.c ****   }
 546:RTT/SEGGER_RTT.c ****   return r;
  70              		.loc 1 546 3 is_stmt 1 view .LVU19
 547:RTT/SEGGER_RTT.c **** }
  71              		.loc 1 547 1 is_stmt 0 view .LVU20
  72 0016 7047     		bx	lr
  73              		.cfi_endproc
  74              	.LFE4:
  76              		.section	.text._WriteNoCheck,"ax",%progbits
  77              		.align	1
  78              		.syntax unified
  79              		.thumb
  80              		.thumb_func
  82              	_WriteNoCheck:
  83              	.LVL9:
ARM GAS  C:\Users\wizar\AppData\Local\Temp\ccRaZdSN.s 			page 12


  84              	.LFB2:
 441:RTT/SEGGER_RTT.c ****   unsigned NumBytesAtOnce;
  85              		.loc 1 441 94 is_stmt 1 view -0
  86              		.cfi_startproc
  87              		@ args = 0, pretend = 0, frame = 0
  88              		@ frame_needed = 0, uses_anonymous_args = 0
 441:RTT/SEGGER_RTT.c ****   unsigned NumBytesAtOnce;
  89              		.loc 1 441 94 is_stmt 0 view .LVU22
  90 0000 2DE9F843 		push	{r3, r4, r5, r6, r7, r8, r9, lr}
  91              	.LCFI0:
  92              		.cfi_def_cfa_offset 32
  93              		.cfi_offset 3, -32
  94              		.cfi_offset 4, -28
  95              		.cfi_offset 5, -24
  96              		.cfi_offset 6, -20
  97              		.cfi_offset 7, -16
  98              		.cfi_offset 8, -12
  99              		.cfi_offset 9, -8
 100              		.cfi_offset 14, -4
 101 0004 0446     		mov	r4, r0
 102 0006 8846     		mov	r8, r1
 103 0008 1646     		mov	r6, r2
 442:RTT/SEGGER_RTT.c ****   unsigned WrOff;
 104              		.loc 1 442 3 is_stmt 1 view .LVU23
 443:RTT/SEGGER_RTT.c ****   unsigned Rem;
 105              		.loc 1 443 3 view .LVU24
 444:RTT/SEGGER_RTT.c ****   volatile char* pDst;
 106              		.loc 1 444 3 view .LVU25
 445:RTT/SEGGER_RTT.c **** 
 107              		.loc 1 445 3 view .LVU26
 447:RTT/SEGGER_RTT.c ****   Rem = pRing->SizeOfBuffer - WrOff;
 108              		.loc 1 447 3 view .LVU27
 447:RTT/SEGGER_RTT.c ****   Rem = pRing->SizeOfBuffer - WrOff;
 109              		.loc 1 447 9 is_stmt 0 view .LVU28
 110 000a C568     		ldr	r5, [r0, #12]
 111              	.LVL10:
 448:RTT/SEGGER_RTT.c ****   if (Rem > NumBytes) {
 112              		.loc 1 448 3 is_stmt 1 view .LVU29
 448:RTT/SEGGER_RTT.c ****   if (Rem > NumBytes) {
 113              		.loc 1 448 14 is_stmt 0 view .LVU30
 114 000c 8768     		ldr	r7, [r0, #8]
 448:RTT/SEGGER_RTT.c ****   if (Rem > NumBytes) {
 115              		.loc 1 448 7 view .LVU31
 116 000e A7EB0509 		sub	r9, r7, r5
 117              	.LVL11:
 449:RTT/SEGGER_RTT.c ****     //
 118              		.loc 1 449 3 is_stmt 1 view .LVU32
 449:RTT/SEGGER_RTT.c ****     //
 119              		.loc 1 449 6 is_stmt 0 view .LVU33
 120 0012 9145     		cmp	r9, r2
 121 0014 07D9     		bls	.L5
 453:RTT/SEGGER_RTT.c **** #if SEGGER_RTT_MEMCPY_USE_BYTELOOP
 122              		.loc 1 453 5 is_stmt 1 view .LVU34
 453:RTT/SEGGER_RTT.c **** #if SEGGER_RTT_MEMCPY_USE_BYTELOOP
 123              		.loc 1 453 18 is_stmt 0 view .LVU35
 124 0016 4068     		ldr	r0, [r0, #4]
 125              	.LVL12:
ARM GAS  C:\Users\wizar\AppData\Local\Temp\ccRaZdSN.s 			page 13


 462:RTT/SEGGER_RTT.c ****     RTT__DMB();                     // Force data write to be complete before writing the <WrOff>, 
 126              		.loc 1 462 5 is_stmt 1 view .LVU36
 127 0018 2844     		add	r0, r0, r5
 128              	.LVL13:
 462:RTT/SEGGER_RTT.c ****     RTT__DMB();                     // Force data write to be complete before writing the <WrOff>, 
 129              		.loc 1 462 5 is_stmt 0 view .LVU37
 130 001a FFF7FEFF 		bl	memcpy
 131              	.LVL14:
 463:RTT/SEGGER_RTT.c ****     pRing->WrOff = WrOff + NumBytes;
 132              		.loc 1 463 15 is_stmt 1 view .LVU38
 464:RTT/SEGGER_RTT.c **** #endif
 133              		.loc 1 464 5 view .LVU39
 464:RTT/SEGGER_RTT.c **** #endif
 134              		.loc 1 464 26 is_stmt 0 view .LVU40
 135 001e 3544     		add	r5, r5, r6
 136              	.LVL15:
 464:RTT/SEGGER_RTT.c **** #endif
 137              		.loc 1 464 18 view .LVU41
 138 0020 E560     		str	r5, [r4, #12]
 139              	.L4:
 494:RTT/SEGGER_RTT.c **** 
 140              		.loc 1 494 1 view .LVU42
 141 0022 BDE8F883 		pop	{r3, r4, r5, r6, r7, r8, r9, pc}
 142              	.LVL16:
 143              	.L5:
 484:RTT/SEGGER_RTT.c ****     pDst = (pRing->pBuffer + WrOff) + SEGGER_RTT_UNCACHED_OFF;
 144              		.loc 1 484 5 is_stmt 1 view .LVU43
 485:RTT/SEGGER_RTT.c ****     SEGGER_RTT_MEMCPY((void*)pDst, pData, NumBytesAtOnce);
 145              		.loc 1 485 5 view .LVU44
 485:RTT/SEGGER_RTT.c ****     SEGGER_RTT_MEMCPY((void*)pDst, pData, NumBytesAtOnce);
 146              		.loc 1 485 18 is_stmt 0 view .LVU45
 147 0026 4068     		ldr	r0, [r0, #4]
 148              	.LVL17:
 486:RTT/SEGGER_RTT.c ****     NumBytesAtOnce = NumBytes - Rem;
 149              		.loc 1 486 5 is_stmt 1 view .LVU46
 150 0028 4A46     		mov	r2, r9
 151              	.LVL18:
 486:RTT/SEGGER_RTT.c ****     NumBytesAtOnce = NumBytes - Rem;
 152              		.loc 1 486 5 is_stmt 0 view .LVU47
 153 002a 2844     		add	r0, r0, r5
 154              	.LVL19:
 486:RTT/SEGGER_RTT.c ****     NumBytesAtOnce = NumBytes - Rem;
 155              		.loc 1 486 5 view .LVU48
 156 002c FFF7FEFF 		bl	memcpy
 157              	.LVL20:
 487:RTT/SEGGER_RTT.c ****     pDst = pRing->pBuffer + SEGGER_RTT_UNCACHED_OFF;
 158              		.loc 1 487 5 is_stmt 1 view .LVU49
 487:RTT/SEGGER_RTT.c ****     pDst = pRing->pBuffer + SEGGER_RTT_UNCACHED_OFF;
 159              		.loc 1 487 20 is_stmt 0 view .LVU50
 160 0030 ED1B     		subs	r5, r5, r7
 161              	.LVL21:
 487:RTT/SEGGER_RTT.c ****     pDst = pRing->pBuffer + SEGGER_RTT_UNCACHED_OFF;
 162              		.loc 1 487 20 view .LVU51
 163 0032 3544     		add	r5, r5, r6
 164              	.LVL22:
 488:RTT/SEGGER_RTT.c ****     SEGGER_RTT_MEMCPY((void*)pDst, pData + Rem, NumBytesAtOnce);
 165              		.loc 1 488 5 is_stmt 1 view .LVU52
ARM GAS  C:\Users\wizar\AppData\Local\Temp\ccRaZdSN.s 			page 14


 489:RTT/SEGGER_RTT.c ****     RTT__DMB();                     // Force data write to be complete before writing the <WrOff>, 
 166              		.loc 1 489 5 view .LVU53
 167 0034 2A46     		mov	r2, r5
 168 0036 08EB0901 		add	r1, r8, r9
 169 003a 6068     		ldr	r0, [r4, #4]
 170 003c FFF7FEFF 		bl	memcpy
 171              	.LVL23:
 490:RTT/SEGGER_RTT.c ****     pRing->WrOff = NumBytesAtOnce;
 172              		.loc 1 490 15 view .LVU54
 491:RTT/SEGGER_RTT.c **** #endif
 173              		.loc 1 491 5 view .LVU55
 491:RTT/SEGGER_RTT.c **** #endif
 174              		.loc 1 491 18 is_stmt 0 view .LVU56
 175 0040 E560     		str	r5, [r4, #12]
 494:RTT/SEGGER_RTT.c **** 
 176              		.loc 1 494 1 view .LVU57
 177 0042 EEE7     		b	.L4
 178              		.cfi_endproc
 179              	.LFE2:
 181              		.section	.text._WriteBlocking,"ax",%progbits
 182              		.align	1
 183              		.syntax unified
 184              		.thumb
 185              		.thumb_func
 187              	_WriteBlocking:
 188              	.LVL24:
 189              	.LFB1:
 379:RTT/SEGGER_RTT.c ****   unsigned NumBytesToWrite;
 190              		.loc 1 379 101 is_stmt 1 view -0
 191              		.cfi_startproc
 192              		@ args = 0, pretend = 0, frame = 0
 193              		@ frame_needed = 0, uses_anonymous_args = 0
 379:RTT/SEGGER_RTT.c ****   unsigned NumBytesToWrite;
 194              		.loc 1 379 101 is_stmt 0 view .LVU59
 195 0000 2DE9F843 		push	{r3, r4, r5, r6, r7, r8, r9, lr}
 196              	.LCFI1:
 197              		.cfi_def_cfa_offset 32
 198              		.cfi_offset 3, -32
 199              		.cfi_offset 4, -28
 200              		.cfi_offset 5, -24
 201              		.cfi_offset 6, -20
 202              		.cfi_offset 7, -16
 203              		.cfi_offset 8, -12
 204              		.cfi_offset 9, -8
 205              		.cfi_offset 14, -4
 206 0004 0646     		mov	r6, r0
 207 0006 8846     		mov	r8, r1
 208 0008 1746     		mov	r7, r2
 380:RTT/SEGGER_RTT.c ****   unsigned NumBytesWritten;
 209              		.loc 1 380 3 is_stmt 1 view .LVU60
 381:RTT/SEGGER_RTT.c ****   unsigned RdOff;
 210              		.loc 1 381 3 view .LVU61
 382:RTT/SEGGER_RTT.c ****   unsigned WrOff;
 211              		.loc 1 382 3 view .LVU62
 383:RTT/SEGGER_RTT.c ****   volatile char* pDst;
 212              		.loc 1 383 3 view .LVU63
 384:RTT/SEGGER_RTT.c ****   //
ARM GAS  C:\Users\wizar\AppData\Local\Temp\ccRaZdSN.s 			page 15


 213              		.loc 1 384 3 view .LVU64
 388:RTT/SEGGER_RTT.c ****   WrOff = pRing->WrOff;
 214              		.loc 1 388 3 view .LVU65
 215              	.LVL25:
 389:RTT/SEGGER_RTT.c ****   do {
 216              		.loc 1 389 3 view .LVU66
 389:RTT/SEGGER_RTT.c ****   do {
 217              		.loc 1 389 9 is_stmt 0 view .LVU67
 218 000a C568     		ldr	r5, [r0, #12]
 219              	.LVL26:
 388:RTT/SEGGER_RTT.c ****   WrOff = pRing->WrOff;
 220              		.loc 1 388 19 view .LVU68
 221 000c 4FF00009 		mov	r9, #0
 222 0010 18E0     		b	.L12
 223              	.LVL27:
 224              	.L17:
 393:RTT/SEGGER_RTT.c ****     } else {
 225              		.loc 1 393 7 is_stmt 1 view .LVU69
 393:RTT/SEGGER_RTT.c ****     } else {
 226              		.loc 1 393 31 is_stmt 0 view .LVU70
 227 0012 641B     		subs	r4, r4, r5
 228              	.LVL28:
 393:RTT/SEGGER_RTT.c ****     } else {
 229              		.loc 1 393 23 view .LVU71
 230 0014 621E     		subs	r2, r4, #1
 231              	.LVL29:
 232              	.L10:
 397:RTT/SEGGER_RTT.c ****     NumBytesToWrite = MIN(NumBytesToWrite, NumBytes);
 233              		.loc 1 397 5 is_stmt 1 view .LVU72
 397:RTT/SEGGER_RTT.c ****     NumBytesToWrite = MIN(NumBytesToWrite, NumBytes);
 234              		.loc 1 397 23 is_stmt 0 view .LVU73
 235 0016 B368     		ldr	r3, [r6, #8]
 236 0018 5C1B     		subs	r4, r3, r5
 397:RTT/SEGGER_RTT.c ****     NumBytesToWrite = MIN(NumBytesToWrite, NumBytes);
 237              		.loc 1 397 21 view .LVU74
 238 001a 9442     		cmp	r4, r2
 239 001c 28BF     		it	cs
 240 001e 1446     		movcs	r4, r2
 241              	.LVL30:
 398:RTT/SEGGER_RTT.c ****     pDst = (pRing->pBuffer + WrOff) + SEGGER_RTT_UNCACHED_OFF;
 242              		.loc 1 398 5 is_stmt 1 view .LVU75
 398:RTT/SEGGER_RTT.c ****     pDst = (pRing->pBuffer + WrOff) + SEGGER_RTT_UNCACHED_OFF;
 243              		.loc 1 398 21 is_stmt 0 view .LVU76
 244 0020 BC42     		cmp	r4, r7
 245 0022 28BF     		it	cs
 246 0024 3C46     		movcs	r4, r7
 247              	.LVL31:
 399:RTT/SEGGER_RTT.c **** #if SEGGER_RTT_MEMCPY_USE_BYTELOOP
 248              		.loc 1 399 5 is_stmt 1 view .LVU77
 399:RTT/SEGGER_RTT.c **** #if SEGGER_RTT_MEMCPY_USE_BYTELOOP
 249              		.loc 1 399 18 is_stmt 0 view .LVU78
 250 0026 7068     		ldr	r0, [r6, #4]
 251              	.LVL32:
 408:RTT/SEGGER_RTT.c ****     NumBytesWritten += NumBytesToWrite;
 252              		.loc 1 408 5 is_stmt 1 view .LVU79
 253 0028 2246     		mov	r2, r4
 254 002a 4146     		mov	r1, r8
ARM GAS  C:\Users\wizar\AppData\Local\Temp\ccRaZdSN.s 			page 16


 255 002c 2844     		add	r0, r0, r5
 256              	.LVL33:
 408:RTT/SEGGER_RTT.c ****     NumBytesWritten += NumBytesToWrite;
 257              		.loc 1 408 5 is_stmt 0 view .LVU80
 258 002e FFF7FEFF 		bl	memcpy
 259              	.LVL34:
 409:RTT/SEGGER_RTT.c ****     pBuffer         += NumBytesToWrite;
 260              		.loc 1 409 5 is_stmt 1 view .LVU81
 409:RTT/SEGGER_RTT.c ****     pBuffer         += NumBytesToWrite;
 261              		.loc 1 409 21 is_stmt 0 view .LVU82
 262 0032 A144     		add	r9, r9, r4
 263              	.LVL35:
 410:RTT/SEGGER_RTT.c ****     NumBytes        -= NumBytesToWrite;
 264              		.loc 1 410 5 is_stmt 1 view .LVU83
 410:RTT/SEGGER_RTT.c ****     NumBytes        -= NumBytesToWrite;
 265              		.loc 1 410 21 is_stmt 0 view .LVU84
 266 0034 A044     		add	r8, r8, r4
 267              	.LVL36:
 411:RTT/SEGGER_RTT.c ****     WrOff           += NumBytesToWrite;
 268              		.loc 1 411 5 is_stmt 1 view .LVU85
 411:RTT/SEGGER_RTT.c ****     WrOff           += NumBytesToWrite;
 269              		.loc 1 411 21 is_stmt 0 view .LVU86
 270 0036 3F1B     		subs	r7, r7, r4
 271              	.LVL37:
 412:RTT/SEGGER_RTT.c **** #endif
 272              		.loc 1 412 5 is_stmt 1 view .LVU87
 412:RTT/SEGGER_RTT.c **** #endif
 273              		.loc 1 412 21 is_stmt 0 view .LVU88
 274 0038 2544     		add	r5, r5, r4
 275              	.LVL38:
 414:RTT/SEGGER_RTT.c ****       WrOff = 0u;
 276              		.loc 1 414 5 is_stmt 1 view .LVU89
 414:RTT/SEGGER_RTT.c ****       WrOff = 0u;
 277              		.loc 1 414 23 is_stmt 0 view .LVU90
 278 003a B368     		ldr	r3, [r6, #8]
 414:RTT/SEGGER_RTT.c ****       WrOff = 0u;
 279              		.loc 1 414 8 view .LVU91
 280 003c AB42     		cmp	r3, r5
 281 003e 09D0     		beq	.L15
 282              	.LVL39:
 283              	.L11:
 417:RTT/SEGGER_RTT.c ****     pRing->WrOff = WrOff;
 284              		.loc 1 417 15 is_stmt 1 view .LVU92
 418:RTT/SEGGER_RTT.c ****   } while (NumBytes);
 285              		.loc 1 418 5 view .LVU93
 418:RTT/SEGGER_RTT.c ****   } while (NumBytes);
 286              		.loc 1 418 18 is_stmt 0 view .LVU94
 287 0040 F560     		str	r5, [r6, #12]
 419:RTT/SEGGER_RTT.c ****   return NumBytesWritten;
 288              		.loc 1 419 11 is_stmt 1 view .LVU95
 419:RTT/SEGGER_RTT.c ****   return NumBytesWritten;
 289              		.loc 1 419 3 is_stmt 0 view .LVU96
 290 0042 4FB1     		cbz	r7, .L16
 291              	.LVL40:
 292              	.L12:
 390:RTT/SEGGER_RTT.c ****     RdOff = pRing->RdOff;                         // May be changed by host (debug probe) in the me
 293              		.loc 1 390 3 is_stmt 1 view .LVU97
ARM GAS  C:\Users\wizar\AppData\Local\Temp\ccRaZdSN.s 			page 17


 391:RTT/SEGGER_RTT.c ****     if (RdOff > WrOff) {
 294              		.loc 1 391 5 view .LVU98
 391:RTT/SEGGER_RTT.c ****     if (RdOff > WrOff) {
 295              		.loc 1 391 11 is_stmt 0 view .LVU99
 296 0044 3469     		ldr	r4, [r6, #16]
 297              	.LVL41:
 392:RTT/SEGGER_RTT.c ****       NumBytesToWrite = RdOff - WrOff - 1u;
 298              		.loc 1 392 5 is_stmt 1 view .LVU100
 392:RTT/SEGGER_RTT.c ****       NumBytesToWrite = RdOff - WrOff - 1u;
 299              		.loc 1 392 8 is_stmt 0 view .LVU101
 300 0046 A542     		cmp	r5, r4
 301 0048 E3D3     		bcc	.L17
 395:RTT/SEGGER_RTT.c ****     }
 302              		.loc 1 395 7 is_stmt 1 view .LVU102
 395:RTT/SEGGER_RTT.c ****     }
 303              		.loc 1 395 30 is_stmt 0 view .LVU103
 304 004a B268     		ldr	r2, [r6, #8]
 395:RTT/SEGGER_RTT.c ****     }
 305              		.loc 1 395 62 view .LVU104
 306 004c 641B     		subs	r4, r4, r5
 307              	.LVL42:
 395:RTT/SEGGER_RTT.c ****     }
 308              		.loc 1 395 45 view .LVU105
 309 004e 1444     		add	r4, r4, r2
 395:RTT/SEGGER_RTT.c ****     }
 310              		.loc 1 395 23 view .LVU106
 311 0050 621E     		subs	r2, r4, #1
 312              	.LVL43:
 395:RTT/SEGGER_RTT.c ****     }
 313              		.loc 1 395 23 view .LVU107
 314 0052 E0E7     		b	.L10
 315              	.LVL44:
 316              	.L15:
 415:RTT/SEGGER_RTT.c ****     }
 317              		.loc 1 415 13 view .LVU108
 318 0054 0025     		movs	r5, #0
 319              	.LVL45:
 415:RTT/SEGGER_RTT.c ****     }
 320              		.loc 1 415 13 view .LVU109
 321 0056 F3E7     		b	.L11
 322              	.LVL46:
 323              	.L16:
 420:RTT/SEGGER_RTT.c **** }
 324              		.loc 1 420 3 is_stmt 1 view .LVU110
 421:RTT/SEGGER_RTT.c **** 
 325              		.loc 1 421 1 is_stmt 0 view .LVU111
 326 0058 4846     		mov	r0, r9
 327 005a BDE8F883 		pop	{r3, r4, r5, r6, r7, r8, r9, pc}
 421:RTT/SEGGER_RTT.c **** 
 328              		.loc 1 421 1 view .LVU112
 329              		.cfi_endproc
 330              	.LFE1:
 332              		.section	.text._PostTerminalSwitch,"ax",%progbits
 333              		.align	1
 334              		.syntax unified
 335              		.thumb
 336              		.thumb_func
ARM GAS  C:\Users\wizar\AppData\Local\Temp\ccRaZdSN.s 			page 18


 338              	_PostTerminalSwitch:
 339              	.LVL47:
 340              	.LFB3:
 509:RTT/SEGGER_RTT.c ****   unsigned char ac[2];
 341              		.loc 1 509 88 is_stmt 1 view -0
 342              		.cfi_startproc
 343              		@ args = 0, pretend = 0, frame = 8
 344              		@ frame_needed = 0, uses_anonymous_args = 0
 509:RTT/SEGGER_RTT.c ****   unsigned char ac[2];
 345              		.loc 1 509 88 is_stmt 0 view .LVU114
 346 0000 00B5     		push	{lr}
 347              	.LCFI2:
 348              		.cfi_def_cfa_offset 4
 349              		.cfi_offset 14, -4
 350 0002 83B0     		sub	sp, sp, #12
 351              	.LCFI3:
 352              		.cfi_def_cfa_offset 16
 510:RTT/SEGGER_RTT.c **** 
 353              		.loc 1 510 3 is_stmt 1 view .LVU115
 512:RTT/SEGGER_RTT.c ****   ac[1] = _aTerminalId[TerminalId];  // Caller made already sure that TerminalId does not exceed ou
 354              		.loc 1 512 3 view .LVU116
 512:RTT/SEGGER_RTT.c ****   ac[1] = _aTerminalId[TerminalId];  // Caller made already sure that TerminalId does not exceed ou
 355              		.loc 1 512 9 is_stmt 0 view .LVU117
 356 0004 FF23     		movs	r3, #255
 357 0006 8DF80430 		strb	r3, [sp, #4]
 513:RTT/SEGGER_RTT.c ****   _WriteBlocking(pRing, (const char*)ac, 2u);
 358              		.loc 1 513 3 is_stmt 1 view .LVU118
 513:RTT/SEGGER_RTT.c ****   _WriteBlocking(pRing, (const char*)ac, 2u);
 359              		.loc 1 513 23 is_stmt 0 view .LVU119
 360 000a 054B     		ldr	r3, .L20
 361 000c 5B5C     		ldrb	r3, [r3, r1]	@ zero_extendqisi2
 513:RTT/SEGGER_RTT.c ****   _WriteBlocking(pRing, (const char*)ac, 2u);
 362              		.loc 1 513 9 view .LVU120
 363 000e 8DF80530 		strb	r3, [sp, #5]
 514:RTT/SEGGER_RTT.c **** }
 364              		.loc 1 514 3 is_stmt 1 view .LVU121
 365 0012 0222     		movs	r2, #2
 366 0014 01A9     		add	r1, sp, #4
 367              	.LVL48:
 514:RTT/SEGGER_RTT.c **** }
 368              		.loc 1 514 3 is_stmt 0 view .LVU122
 369 0016 FFF7FEFF 		bl	_WriteBlocking
 370              	.LVL49:
 515:RTT/SEGGER_RTT.c **** 
 371              		.loc 1 515 1 view .LVU123
 372 001a 03B0     		add	sp, sp, #12
 373              	.LCFI4:
 374              		.cfi_def_cfa_offset 4
 375              		@ sp needed
 376 001c 5DF804FB 		ldr	pc, [sp], #4
 377              	.L21:
 378              		.align	2
 379              	.L20:
 380 0020 00000000 		.word	.LANCHOR0
 381              		.cfi_endproc
 382              	.LFE3:
 384              		.section	.rodata._DoInit.str1.4,"aMS",%progbits,1
ARM GAS  C:\Users\wizar\AppData\Local\Temp\ccRaZdSN.s 			page 19


 385              		.align	2
 386              	.LC0:
 387 0000 5465726D 		.ascii	"Terminal\000"
 387      696E616C 
 387      00
 388              		.section	.text._DoInit,"ax",%progbits
 389              		.align	1
 390              		.syntax unified
 391              		.thumb
 392              		.thumb_func
 394              	_DoInit:
 395              	.LFB0:
 319:RTT/SEGGER_RTT.c ****   volatile SEGGER_RTT_CB* p;   // Volatile to make sure that compiler cannot change the order of ac
 396              		.loc 1 319 27 is_stmt 1 view -0
 397              		.cfi_startproc
 398              		@ args = 0, pretend = 0, frame = 0
 399              		@ frame_needed = 0, uses_anonymous_args = 0
 400 0000 10B5     		push	{r4, lr}
 401              	.LCFI5:
 402              		.cfi_def_cfa_offset 8
 403              		.cfi_offset 4, -8
 404              		.cfi_offset 14, -4
 320:RTT/SEGGER_RTT.c ****   static const char _aInitStr[] = "\0\0\0\0\0\0TTR REGGES";  // Init complete ID string to make sur
 405              		.loc 1 320 3 view .LVU125
 321:RTT/SEGGER_RTT.c ****   unsigned i;
 406              		.loc 1 321 3 view .LVU126
 322:RTT/SEGGER_RTT.c ****   //
 407              		.loc 1 322 3 view .LVU127
 326:RTT/SEGGER_RTT.c ****   memset((SEGGER_RTT_CB*)p, 0, sizeof(_SEGGER_RTT));         // Make sure that the RTT CB is always
 408              		.loc 1 326 3 view .LVU128
 409              	.LVL50:
 327:RTT/SEGGER_RTT.c ****   p->MaxNumUpBuffers    = SEGGER_RTT_MAX_NUM_UP_BUFFERS;
 410              		.loc 1 327 3 view .LVU129
 411 0002 134C     		ldr	r4, .L26
 412 0004 A822     		movs	r2, #168
 413 0006 0021     		movs	r1, #0
 414 0008 2046     		mov	r0, r4
 415 000a FFF7FEFF 		bl	memset
 416              	.LVL51:
 328:RTT/SEGGER_RTT.c ****   p->MaxNumDownBuffers  = SEGGER_RTT_MAX_NUM_DOWN_BUFFERS;
 417              		.loc 1 328 3 view .LVU130
 328:RTT/SEGGER_RTT.c ****   p->MaxNumDownBuffers  = SEGGER_RTT_MAX_NUM_DOWN_BUFFERS;
 418              		.loc 1 328 25 is_stmt 0 view .LVU131
 419 000e 0323     		movs	r3, #3
 420 0010 2361     		str	r3, [r4, #16]
 329:RTT/SEGGER_RTT.c ****   //
 421              		.loc 1 329 3 is_stmt 1 view .LVU132
 329:RTT/SEGGER_RTT.c ****   //
 422              		.loc 1 329 25 is_stmt 0 view .LVU133
 423 0012 6361     		str	r3, [r4, #20]
 333:RTT/SEGGER_RTT.c ****   p->aUp[0].pBuffer       = _acUpBuffer;
 424              		.loc 1 333 3 is_stmt 1 view .LVU134
 333:RTT/SEGGER_RTT.c ****   p->aUp[0].pBuffer       = _acUpBuffer;
 425              		.loc 1 333 27 is_stmt 0 view .LVU135
 426 0014 0F4A     		ldr	r2, .L26+4
 427 0016 A261     		str	r2, [r4, #24]
 334:RTT/SEGGER_RTT.c ****   p->aUp[0].SizeOfBuffer  = BUFFER_SIZE_UP;
ARM GAS  C:\Users\wizar\AppData\Local\Temp\ccRaZdSN.s 			page 20


 428              		.loc 1 334 3 is_stmt 1 view .LVU136
 334:RTT/SEGGER_RTT.c ****   p->aUp[0].SizeOfBuffer  = BUFFER_SIZE_UP;
 429              		.loc 1 334 27 is_stmt 0 view .LVU137
 430 0018 0F4B     		ldr	r3, .L26+8
 431 001a E361     		str	r3, [r4, #28]
 335:RTT/SEGGER_RTT.c ****   p->aUp[0].RdOff         = 0u;
 432              		.loc 1 335 3 is_stmt 1 view .LVU138
 335:RTT/SEGGER_RTT.c ****   p->aUp[0].RdOff         = 0u;
 433              		.loc 1 335 27 is_stmt 0 view .LVU139
 434 001c 4FF48063 		mov	r3, #1024
 435 0020 2362     		str	r3, [r4, #32]
 336:RTT/SEGGER_RTT.c ****   p->aUp[0].WrOff         = 0u;
 436              		.loc 1 336 3 is_stmt 1 view .LVU140
 336:RTT/SEGGER_RTT.c ****   p->aUp[0].WrOff         = 0u;
 437              		.loc 1 336 27 is_stmt 0 view .LVU141
 438 0022 0023     		movs	r3, #0
 439 0024 A362     		str	r3, [r4, #40]
 337:RTT/SEGGER_RTT.c ****   p->aUp[0].Flags         = SEGGER_RTT_MODE_DEFAULT;
 440              		.loc 1 337 3 is_stmt 1 view .LVU142
 337:RTT/SEGGER_RTT.c ****   p->aUp[0].Flags         = SEGGER_RTT_MODE_DEFAULT;
 441              		.loc 1 337 27 is_stmt 0 view .LVU143
 442 0026 6362     		str	r3, [r4, #36]
 338:RTT/SEGGER_RTT.c ****   //
 443              		.loc 1 338 3 is_stmt 1 view .LVU144
 338:RTT/SEGGER_RTT.c ****   //
 444              		.loc 1 338 27 is_stmt 0 view .LVU145
 445 0028 E362     		str	r3, [r4, #44]
 342:RTT/SEGGER_RTT.c ****   p->aDown[0].pBuffer       = _acDownBuffer;
 446              		.loc 1 342 3 is_stmt 1 view .LVU146
 342:RTT/SEGGER_RTT.c ****   p->aDown[0].pBuffer       = _acDownBuffer;
 447              		.loc 1 342 29 is_stmt 0 view .LVU147
 448 002a 2266     		str	r2, [r4, #96]
 343:RTT/SEGGER_RTT.c ****   p->aDown[0].SizeOfBuffer  = BUFFER_SIZE_DOWN;
 449              		.loc 1 343 3 is_stmt 1 view .LVU148
 343:RTT/SEGGER_RTT.c ****   p->aDown[0].SizeOfBuffer  = BUFFER_SIZE_DOWN;
 450              		.loc 1 343 29 is_stmt 0 view .LVU149
 451 002c 0B4A     		ldr	r2, .L26+12
 452 002e 6266     		str	r2, [r4, #100]
 344:RTT/SEGGER_RTT.c ****   p->aDown[0].RdOff         = 0u;
 453              		.loc 1 344 3 is_stmt 1 view .LVU150
 344:RTT/SEGGER_RTT.c ****   p->aDown[0].RdOff         = 0u;
 454              		.loc 1 344 29 is_stmt 0 view .LVU151
 455 0030 1022     		movs	r2, #16
 456 0032 A266     		str	r2, [r4, #104]
 345:RTT/SEGGER_RTT.c ****   p->aDown[0].WrOff         = 0u;
 457              		.loc 1 345 3 is_stmt 1 view .LVU152
 345:RTT/SEGGER_RTT.c ****   p->aDown[0].WrOff         = 0u;
 458              		.loc 1 345 29 is_stmt 0 view .LVU153
 459 0034 2367     		str	r3, [r4, #112]
 346:RTT/SEGGER_RTT.c ****   p->aDown[0].Flags         = SEGGER_RTT_MODE_DEFAULT;
 460              		.loc 1 346 3 is_stmt 1 view .LVU154
 346:RTT/SEGGER_RTT.c ****   p->aDown[0].Flags         = SEGGER_RTT_MODE_DEFAULT;
 461              		.loc 1 346 29 is_stmt 0 view .LVU155
 462 0036 E366     		str	r3, [r4, #108]
 347:RTT/SEGGER_RTT.c ****   //
 463              		.loc 1 347 3 is_stmt 1 view .LVU156
 347:RTT/SEGGER_RTT.c ****   //
ARM GAS  C:\Users\wizar\AppData\Local\Temp\ccRaZdSN.s 			page 21


 464              		.loc 1 347 29 is_stmt 0 view .LVU157
 465 0038 6367     		str	r3, [r4, #116]
 353:RTT/SEGGER_RTT.c ****   for (i = 0; i < sizeof(_aInitStr) - 1; ++i) {
 466              		.loc 1 353 13 is_stmt 1 view .LVU158
 354:RTT/SEGGER_RTT.c ****     p->acID[i] = _aInitStr[sizeof(_aInitStr) - 2 - i];  // Skip terminating \0 at the end of the ar
 467              		.loc 1 354 3 view .LVU159
 468              	.LVL52:
 354:RTT/SEGGER_RTT.c ****     p->acID[i] = _aInitStr[sizeof(_aInitStr) - 2 - i];  // Skip terminating \0 at the end of the ar
 469              		.loc 1 354 3 is_stmt 0 view .LVU160
 470 003a 06E0     		b	.L23
 471              	.LVL53:
 472              	.L24:
 355:RTT/SEGGER_RTT.c ****   }
 473              		.loc 1 355 5 is_stmt 1 discriminator 3 view .LVU161
 355:RTT/SEGGER_RTT.c ****   }
 474              		.loc 1 355 50 is_stmt 0 discriminator 3 view .LVU162
 475 003c C3F10F02 		rsb	r2, r3, #15
 355:RTT/SEGGER_RTT.c ****   }
 476              		.loc 1 355 27 discriminator 3 view .LVU163
 477 0040 0749     		ldr	r1, .L26+16
 478 0042 895C     		ldrb	r1, [r1, r2]	@ zero_extendqisi2
 355:RTT/SEGGER_RTT.c ****   }
 479              		.loc 1 355 16 discriminator 3 view .LVU164
 480 0044 024A     		ldr	r2, .L26
 481 0046 D154     		strb	r1, [r2, r3]
 354:RTT/SEGGER_RTT.c ****     p->acID[i] = _aInitStr[sizeof(_aInitStr) - 2 - i];  // Skip terminating \0 at the end of the ar
 482              		.loc 1 354 42 is_stmt 1 discriminator 3 view .LVU165
 483 0048 0133     		adds	r3, r3, #1
 484              	.LVL54:
 485              	.L23:
 354:RTT/SEGGER_RTT.c ****     p->acID[i] = _aInitStr[sizeof(_aInitStr) - 2 - i];  // Skip terminating \0 at the end of the ar
 486              		.loc 1 354 15 discriminator 1 view .LVU166
 354:RTT/SEGGER_RTT.c ****     p->acID[i] = _aInitStr[sizeof(_aInitStr) - 2 - i];  // Skip terminating \0 at the end of the ar
 487              		.loc 1 354 3 is_stmt 0 discriminator 1 view .LVU167
 488 004a 0F2B     		cmp	r3, #15
 489 004c F6D9     		bls	.L24
 358:RTT/SEGGER_RTT.c **** 
 490              		.loc 1 358 1 view .LVU168
 491 004e 10BD     		pop	{r4, pc}
 492              	.L27:
 493              		.align	2
 494              	.L26:
 495 0050 00000000 		.word	.LANCHOR1
 496 0054 00000000 		.word	.LC0
 497 0058 00000000 		.word	.LANCHOR2
 498 005c 00000000 		.word	.LANCHOR3
 499 0060 00000000 		.word	.LANCHOR4
 500              		.cfi_endproc
 501              	.LFE0:
 503              		.section	.text.SEGGER_RTT_ReadUpBufferNoLock,"ax",%progbits
 504              		.align	1
 505              		.global	SEGGER_RTT_ReadUpBufferNoLock
 506              		.syntax unified
 507              		.thumb
 508              		.thumb_func
 510              	SEGGER_RTT_ReadUpBufferNoLock:
 511              	.LVL55:
ARM GAS  C:\Users\wizar\AppData\Local\Temp\ccRaZdSN.s 			page 22


 512              	.LFB5:
 548:RTT/SEGGER_RTT.c **** 
 549:RTT/SEGGER_RTT.c **** /*********************************************************************
 550:RTT/SEGGER_RTT.c **** *
 551:RTT/SEGGER_RTT.c **** *       Public code
 552:RTT/SEGGER_RTT.c **** *
 553:RTT/SEGGER_RTT.c **** **********************************************************************
 554:RTT/SEGGER_RTT.c **** */
 555:RTT/SEGGER_RTT.c **** 
 556:RTT/SEGGER_RTT.c **** /*********************************************************************
 557:RTT/SEGGER_RTT.c **** *
 558:RTT/SEGGER_RTT.c **** *       SEGGER_RTT_ReadUpBufferNoLock()
 559:RTT/SEGGER_RTT.c **** *
 560:RTT/SEGGER_RTT.c **** *  Function description
 561:RTT/SEGGER_RTT.c **** *    Reads characters from SEGGER real-time-terminal control block
 562:RTT/SEGGER_RTT.c **** *    which have been previously stored by the application.
 563:RTT/SEGGER_RTT.c **** *    Do not lock against interrupts and multiple access.
 564:RTT/SEGGER_RTT.c **** *    Used to do the same operation that J-Link does, to transfer 
 565:RTT/SEGGER_RTT.c **** *    RTT data via other channels, such as TCP/IP or UART.
 566:RTT/SEGGER_RTT.c **** *
 567:RTT/SEGGER_RTT.c **** *  Parameters
 568:RTT/SEGGER_RTT.c **** *    BufferIndex  Index of Up-buffer to be used.
 569:RTT/SEGGER_RTT.c **** *    pBuffer      Pointer to buffer provided by target application, to copy characters from RTT-up-
 570:RTT/SEGGER_RTT.c **** *    BufferSize   Size of the target application buffer.
 571:RTT/SEGGER_RTT.c **** *
 572:RTT/SEGGER_RTT.c **** *  Return value
 573:RTT/SEGGER_RTT.c **** *    Number of bytes that have been read.
 574:RTT/SEGGER_RTT.c **** *
 575:RTT/SEGGER_RTT.c **** *  Additional information
 576:RTT/SEGGER_RTT.c **** *    This function must not be called when J-Link might also do RTT.
 577:RTT/SEGGER_RTT.c **** */
 578:RTT/SEGGER_RTT.c **** unsigned SEGGER_RTT_ReadUpBufferNoLock(unsigned BufferIndex, void* pData, unsigned BufferSize) {
 513              		.loc 1 578 96 is_stmt 1 view -0
 514              		.cfi_startproc
 515              		@ args = 0, pretend = 0, frame = 0
 516              		@ frame_needed = 0, uses_anonymous_args = 0
 517              		.loc 1 578 96 is_stmt 0 view .LVU170
 518 0000 2DE9F047 		push	{r4, r5, r6, r7, r8, r9, r10, lr}
 519              	.LCFI6:
 520              		.cfi_def_cfa_offset 32
 521              		.cfi_offset 4, -32
 522              		.cfi_offset 5, -28
 523              		.cfi_offset 6, -24
 524              		.cfi_offset 7, -20
 525              		.cfi_offset 8, -16
 526              		.cfi_offset 9, -12
 527              		.cfi_offset 10, -8
 528              		.cfi_offset 14, -4
 529 0004 0446     		mov	r4, r0
 530 0006 8846     		mov	r8, r1
 531 0008 9146     		mov	r9, r2
 579:RTT/SEGGER_RTT.c ****   unsigned                NumBytesRem;
 532              		.loc 1 579 3 is_stmt 1 view .LVU171
 580:RTT/SEGGER_RTT.c ****   unsigned                NumBytesRead;
 533              		.loc 1 580 3 view .LVU172
 581:RTT/SEGGER_RTT.c ****   unsigned                RdOff;
 534              		.loc 1 581 3 view .LVU173
ARM GAS  C:\Users\wizar\AppData\Local\Temp\ccRaZdSN.s 			page 23


 582:RTT/SEGGER_RTT.c ****   unsigned                WrOff;
 535              		.loc 1 582 3 view .LVU174
 583:RTT/SEGGER_RTT.c ****   unsigned char*          pBuffer;
 536              		.loc 1 583 3 view .LVU175
 584:RTT/SEGGER_RTT.c ****   SEGGER_RTT_BUFFER_UP*   pRing;
 537              		.loc 1 584 3 view .LVU176
 585:RTT/SEGGER_RTT.c ****   volatile char*          pSrc;
 538              		.loc 1 585 3 view .LVU177
 539              	.LBB2:
 586:RTT/SEGGER_RTT.c **** 
 587:RTT/SEGGER_RTT.c ****   INIT();
 540              		.loc 1 587 3 view .LVU178
 541              		.loc 1 587 3 view .LVU179
 542              	.LVL56:
 543              		.loc 1 587 3 view .LVU180
 544              		.loc 1 587 3 view .LVU181
 545 000a 274B     		ldr	r3, .L39
 546 000c 1B78     		ldrb	r3, [r3]	@ zero_extendqisi2
 547 000e C3B1     		cbz	r3, .L36
 548              	.LVL57:
 549              	.L29:
 550              		.loc 1 587 3 discriminator 3 view .LVU182
 551              	.LBE2:
 552              		.loc 1 587 9 discriminator 3 view .LVU183
 588:RTT/SEGGER_RTT.c ****   pRing = (SEGGER_RTT_BUFFER_UP*)((char*)&_SEGGER_RTT.aUp[BufferIndex] + SEGGER_RTT_UNCACHED_OFF); 
 553              		.loc 1 588 3 discriminator 3 view .LVU184
 589:RTT/SEGGER_RTT.c ****   pBuffer = (unsigned char*)pData;
 554              		.loc 1 589 3 discriminator 3 view .LVU185
 590:RTT/SEGGER_RTT.c ****   RdOff = pRing->RdOff;
 555              		.loc 1 590 3 discriminator 3 view .LVU186
 556              		.loc 1 590 9 is_stmt 0 discriminator 3 view .LVU187
 557 0010 04EB4403 		add	r3, r4, r4, lsl #1
 558 0014 244A     		ldr	r2, .L39
 559 0016 02EBC303 		add	r3, r2, r3, lsl #3
 560 001a 9F6A     		ldr	r7, [r3, #40]
 561              	.LVL58:
 591:RTT/SEGGER_RTT.c ****   WrOff = pRing->WrOff;
 562              		.loc 1 591 3 is_stmt 1 discriminator 3 view .LVU188
 563              		.loc 1 591 9 is_stmt 0 discriminator 3 view .LVU189
 564 001c 5D6A     		ldr	r5, [r3, #36]
 565              	.LVL59:
 592:RTT/SEGGER_RTT.c ****   NumBytesRead = 0u;
 566              		.loc 1 592 3 is_stmt 1 discriminator 3 view .LVU190
 593:RTT/SEGGER_RTT.c ****   //
 594:RTT/SEGGER_RTT.c ****   // Read from current read position to wrap-around of buffer, first
 595:RTT/SEGGER_RTT.c ****   //
 596:RTT/SEGGER_RTT.c ****   if (RdOff > WrOff) {
 567              		.loc 1 596 3 discriminator 3 view .LVU191
 568              		.loc 1 596 6 is_stmt 0 discriminator 3 view .LVU192
 569 001e AF42     		cmp	r7, r5
 570 0020 12D8     		bhi	.L37
 592:RTT/SEGGER_RTT.c ****   NumBytesRead = 0u;
 571              		.loc 1 592 16 view .LVU193
 572 0022 0026     		movs	r6, #0
 573              	.LVL60:
 574              	.L30:
 597:RTT/SEGGER_RTT.c ****     NumBytesRem = pRing->SizeOfBuffer - RdOff;
ARM GAS  C:\Users\wizar\AppData\Local\Temp\ccRaZdSN.s 			page 24


 598:RTT/SEGGER_RTT.c ****     NumBytesRem = MIN(NumBytesRem, BufferSize);
 599:RTT/SEGGER_RTT.c ****     pSrc = (pRing->pBuffer + RdOff) + SEGGER_RTT_UNCACHED_OFF;
 600:RTT/SEGGER_RTT.c **** #if SEGGER_RTT_MEMCPY_USE_BYTELOOP
 601:RTT/SEGGER_RTT.c ****     NumBytesRead += NumBytesRem;
 602:RTT/SEGGER_RTT.c ****     BufferSize   -= NumBytesRem;
 603:RTT/SEGGER_RTT.c ****     RdOff        += NumBytesRem;
 604:RTT/SEGGER_RTT.c ****     while (NumBytesRem--) {
 605:RTT/SEGGER_RTT.c ****       *pBuffer++ = *pSrc++;
 606:RTT/SEGGER_RTT.c ****     };
 607:RTT/SEGGER_RTT.c **** #else
 608:RTT/SEGGER_RTT.c ****     SEGGER_RTT_MEMCPY(pBuffer, (void*)pSrc, NumBytesRem);
 609:RTT/SEGGER_RTT.c ****     NumBytesRead += NumBytesRem;
 610:RTT/SEGGER_RTT.c ****     pBuffer      += NumBytesRem;
 611:RTT/SEGGER_RTT.c ****     BufferSize   -= NumBytesRem;
 612:RTT/SEGGER_RTT.c ****     RdOff        += NumBytesRem;
 613:RTT/SEGGER_RTT.c **** #endif
 614:RTT/SEGGER_RTT.c ****     //
 615:RTT/SEGGER_RTT.c ****     // Handle wrap-around of buffer
 616:RTT/SEGGER_RTT.c ****     //
 617:RTT/SEGGER_RTT.c ****     if (RdOff == pRing->SizeOfBuffer) {
 618:RTT/SEGGER_RTT.c ****       RdOff = 0u;
 619:RTT/SEGGER_RTT.c ****     }
 620:RTT/SEGGER_RTT.c ****   }
 621:RTT/SEGGER_RTT.c ****   //
 622:RTT/SEGGER_RTT.c ****   // Read remaining items of buffer
 623:RTT/SEGGER_RTT.c ****   //
 624:RTT/SEGGER_RTT.c ****   NumBytesRem = WrOff - RdOff;
 575              		.loc 1 624 3 is_stmt 1 view .LVU194
 576              		.loc 1 624 15 is_stmt 0 view .LVU195
 577 0024 ED1B     		subs	r5, r5, r7
 578              	.LVL61:
 625:RTT/SEGGER_RTT.c ****   NumBytesRem = MIN(NumBytesRem, BufferSize);
 579              		.loc 1 625 3 is_stmt 1 view .LVU196
 580              		.loc 1 625 15 is_stmt 0 view .LVU197
 581 0026 4D45     		cmp	r5, r9
 582 0028 28BF     		it	cs
 583 002a 4D46     		movcs	r5, r9
 584              	.LVL62:
 626:RTT/SEGGER_RTT.c ****   if (NumBytesRem > 0u) {
 585              		.loc 1 626 3 is_stmt 1 view .LVU198
 586              		.loc 1 626 6 is_stmt 0 view .LVU199
 587 002c 65BB     		cbnz	r5, .L38
 588              	.LVL63:
 589              	.L31:
 627:RTT/SEGGER_RTT.c ****     pSrc = (pRing->pBuffer + RdOff) + SEGGER_RTT_UNCACHED_OFF;
 628:RTT/SEGGER_RTT.c **** #if SEGGER_RTT_MEMCPY_USE_BYTELOOP
 629:RTT/SEGGER_RTT.c ****     NumBytesRead += NumBytesRem;
 630:RTT/SEGGER_RTT.c ****     BufferSize   -= NumBytesRem;
 631:RTT/SEGGER_RTT.c ****     RdOff        += NumBytesRem;
 632:RTT/SEGGER_RTT.c ****     while (NumBytesRem--) {
 633:RTT/SEGGER_RTT.c ****       *pBuffer++ = *pSrc++;
 634:RTT/SEGGER_RTT.c ****     };
 635:RTT/SEGGER_RTT.c **** #else
 636:RTT/SEGGER_RTT.c ****     SEGGER_RTT_MEMCPY(pBuffer, (void*)pSrc, NumBytesRem);
 637:RTT/SEGGER_RTT.c ****     NumBytesRead += NumBytesRem;
 638:RTT/SEGGER_RTT.c ****     pBuffer      += NumBytesRem;
 639:RTT/SEGGER_RTT.c ****     BufferSize   -= NumBytesRem;
ARM GAS  C:\Users\wizar\AppData\Local\Temp\ccRaZdSN.s 			page 25


 640:RTT/SEGGER_RTT.c ****     RdOff        += NumBytesRem;
 641:RTT/SEGGER_RTT.c **** #endif
 642:RTT/SEGGER_RTT.c ****   }
 643:RTT/SEGGER_RTT.c ****   //
 644:RTT/SEGGER_RTT.c ****   // Update read offset of buffer
 645:RTT/SEGGER_RTT.c ****   //
 646:RTT/SEGGER_RTT.c ****   if (NumBytesRead) {
 590              		.loc 1 646 3 is_stmt 1 view .LVU200
 591              		.loc 1 646 6 is_stmt 0 view .LVU201
 592 002e 2EB1     		cbz	r6, .L28
 647:RTT/SEGGER_RTT.c ****     pRing->RdOff = RdOff;
 593              		.loc 1 647 5 is_stmt 1 view .LVU202
 594              		.loc 1 647 18 is_stmt 0 view .LVU203
 595 0030 04EB4404 		add	r4, r4, r4, lsl #1
 596              	.LVL64:
 597              		.loc 1 647 18 view .LVU204
 598 0034 1C48     		ldr	r0, .L39
 599 0036 00EBC404 		add	r4, r0, r4, lsl #3
 600 003a A762     		str	r7, [r4, #40]
 648:RTT/SEGGER_RTT.c ****   }
 649:RTT/SEGGER_RTT.c ****   //
 650:RTT/SEGGER_RTT.c ****   return NumBytesRead;
 601              		.loc 1 650 3 is_stmt 1 view .LVU205
 602              	.L28:
 651:RTT/SEGGER_RTT.c **** }
 603              		.loc 1 651 1 is_stmt 0 view .LVU206
 604 003c 3046     		mov	r0, r6
 605 003e BDE8F087 		pop	{r4, r5, r6, r7, r8, r9, r10, pc}
 606              	.LVL65:
 607              	.L36:
 608              	.LBB3:
 587:RTT/SEGGER_RTT.c ****   pRing = (SEGGER_RTT_BUFFER_UP*)((char*)&_SEGGER_RTT.aUp[BufferIndex] + SEGGER_RTT_UNCACHED_OFF); 
 609              		.loc 1 587 3 is_stmt 1 discriminator 1 view .LVU207
 610 0042 FFF7FEFF 		bl	_DoInit
 611              	.LVL66:
 587:RTT/SEGGER_RTT.c ****   pRing = (SEGGER_RTT_BUFFER_UP*)((char*)&_SEGGER_RTT.aUp[BufferIndex] + SEGGER_RTT_UNCACHED_OFF); 
 612              		.loc 1 587 3 is_stmt 0 discriminator 1 view .LVU208
 613 0046 E3E7     		b	.L29
 614              	.LVL67:
 615              	.L37:
 587:RTT/SEGGER_RTT.c ****   pRing = (SEGGER_RTT_BUFFER_UP*)((char*)&_SEGGER_RTT.aUp[BufferIndex] + SEGGER_RTT_UNCACHED_OFF); 
 616              		.loc 1 587 3 discriminator 1 view .LVU209
 617              	.LBE3:
 597:RTT/SEGGER_RTT.c ****     NumBytesRem = MIN(NumBytesRem, BufferSize);
 618              		.loc 1 597 5 is_stmt 1 view .LVU210
 597:RTT/SEGGER_RTT.c ****     NumBytesRem = MIN(NumBytesRem, BufferSize);
 619              		.loc 1 597 24 is_stmt 0 view .LVU211
 620 0048 1346     		mov	r3, r2
 621 004a 04EB440A 		add	r10, r4, r4, lsl #1
 622 004e 02EBCA0A 		add	r10, r2, r10, lsl #3
 623 0052 DAF82060 		ldr	r6, [r10, #32]
 597:RTT/SEGGER_RTT.c ****     NumBytesRem = MIN(NumBytesRem, BufferSize);
 624              		.loc 1 597 17 view .LVU212
 625 0056 F61B     		subs	r6, r6, r7
 626              	.LVL68:
 598:RTT/SEGGER_RTT.c ****     pSrc = (pRing->pBuffer + RdOff) + SEGGER_RTT_UNCACHED_OFF;
 627              		.loc 1 598 5 is_stmt 1 view .LVU213
ARM GAS  C:\Users\wizar\AppData\Local\Temp\ccRaZdSN.s 			page 26


 598:RTT/SEGGER_RTT.c ****     pSrc = (pRing->pBuffer + RdOff) + SEGGER_RTT_UNCACHED_OFF;
 628              		.loc 1 598 17 is_stmt 0 view .LVU214
 629 0058 4E45     		cmp	r6, r9
 630 005a 28BF     		it	cs
 631 005c 4E46     		movcs	r6, r9
 632              	.LVL69:
 599:RTT/SEGGER_RTT.c **** #if SEGGER_RTT_MEMCPY_USE_BYTELOOP
 633              		.loc 1 599 5 is_stmt 1 view .LVU215
 599:RTT/SEGGER_RTT.c **** #if SEGGER_RTT_MEMCPY_USE_BYTELOOP
 634              		.loc 1 599 18 is_stmt 0 view .LVU216
 635 005e 621C     		adds	r2, r4, #1
 636 0060 02EB4202 		add	r2, r2, r2, lsl #1
 637 0064 03EBC203 		add	r3, r3, r2, lsl #3
 638 0068 5968     		ldr	r1, [r3, #4]
 639              	.LVL70:
 608:RTT/SEGGER_RTT.c ****     NumBytesRead += NumBytesRem;
 640              		.loc 1 608 5 is_stmt 1 view .LVU217
 641 006a 3246     		mov	r2, r6
 642 006c 3944     		add	r1, r1, r7
 643              	.LVL71:
 608:RTT/SEGGER_RTT.c ****     NumBytesRead += NumBytesRem;
 644              		.loc 1 608 5 is_stmt 0 view .LVU218
 645 006e 4046     		mov	r0, r8
 646 0070 FFF7FEFF 		bl	memcpy
 647              	.LVL72:
 609:RTT/SEGGER_RTT.c ****     pBuffer      += NumBytesRem;
 648              		.loc 1 609 5 is_stmt 1 view .LVU219
 610:RTT/SEGGER_RTT.c ****     BufferSize   -= NumBytesRem;
 649              		.loc 1 610 5 view .LVU220
 610:RTT/SEGGER_RTT.c ****     BufferSize   -= NumBytesRem;
 650              		.loc 1 610 18 is_stmt 0 view .LVU221
 651 0074 B044     		add	r8, r8, r6
 652              	.LVL73:
 611:RTT/SEGGER_RTT.c ****     RdOff        += NumBytesRem;
 653              		.loc 1 611 5 is_stmt 1 view .LVU222
 611:RTT/SEGGER_RTT.c ****     RdOff        += NumBytesRem;
 654              		.loc 1 611 18 is_stmt 0 view .LVU223
 655 0076 A9EB0609 		sub	r9, r9, r6
 656              	.LVL74:
 612:RTT/SEGGER_RTT.c **** #endif
 657              		.loc 1 612 5 is_stmt 1 view .LVU224
 612:RTT/SEGGER_RTT.c **** #endif
 658              		.loc 1 612 18 is_stmt 0 view .LVU225
 659 007a 3744     		add	r7, r7, r6
 660              	.LVL75:
 617:RTT/SEGGER_RTT.c ****       RdOff = 0u;
 661              		.loc 1 617 5 is_stmt 1 view .LVU226
 617:RTT/SEGGER_RTT.c ****       RdOff = 0u;
 662              		.loc 1 617 23 is_stmt 0 view .LVU227
 663 007c DAF82030 		ldr	r3, [r10, #32]
 617:RTT/SEGGER_RTT.c ****       RdOff = 0u;
 664              		.loc 1 617 8 view .LVU228
 665 0080 BB42     		cmp	r3, r7
 666 0082 CFD1     		bne	.L30
 618:RTT/SEGGER_RTT.c ****     }
 667              		.loc 1 618 13 view .LVU229
 668 0084 0027     		movs	r7, #0
ARM GAS  C:\Users\wizar\AppData\Local\Temp\ccRaZdSN.s 			page 27


 669              	.LVL76:
 618:RTT/SEGGER_RTT.c ****     }
 670              		.loc 1 618 13 view .LVU230
 671 0086 CDE7     		b	.L30
 672              	.LVL77:
 673              	.L38:
 627:RTT/SEGGER_RTT.c **** #if SEGGER_RTT_MEMCPY_USE_BYTELOOP
 674              		.loc 1 627 5 is_stmt 1 view .LVU231
 627:RTT/SEGGER_RTT.c **** #if SEGGER_RTT_MEMCPY_USE_BYTELOOP
 675              		.loc 1 627 18 is_stmt 0 view .LVU232
 676 0088 631C     		adds	r3, r4, #1
 677 008a 03EB4303 		add	r3, r3, r3, lsl #1
 678 008e 064A     		ldr	r2, .L39
 679 0090 02EBC303 		add	r3, r2, r3, lsl #3
 680 0094 5968     		ldr	r1, [r3, #4]
 681              	.LVL78:
 636:RTT/SEGGER_RTT.c ****     NumBytesRead += NumBytesRem;
 682              		.loc 1 636 5 is_stmt 1 view .LVU233
 683 0096 2A46     		mov	r2, r5
 684 0098 3944     		add	r1, r1, r7
 685              	.LVL79:
 636:RTT/SEGGER_RTT.c ****     NumBytesRead += NumBytesRem;
 686              		.loc 1 636 5 is_stmt 0 view .LVU234
 687 009a 4046     		mov	r0, r8
 688 009c FFF7FEFF 		bl	memcpy
 689              	.LVL80:
 637:RTT/SEGGER_RTT.c ****     pBuffer      += NumBytesRem;
 690              		.loc 1 637 5 is_stmt 1 view .LVU235
 637:RTT/SEGGER_RTT.c ****     pBuffer      += NumBytesRem;
 691              		.loc 1 637 18 is_stmt 0 view .LVU236
 692 00a0 2E44     		add	r6, r6, r5
 693              	.LVL81:
 638:RTT/SEGGER_RTT.c ****     BufferSize   -= NumBytesRem;
 694              		.loc 1 638 5 is_stmt 1 view .LVU237
 639:RTT/SEGGER_RTT.c ****     RdOff        += NumBytesRem;
 695              		.loc 1 639 5 view .LVU238
 640:RTT/SEGGER_RTT.c **** #endif
 696              		.loc 1 640 5 view .LVU239
 640:RTT/SEGGER_RTT.c **** #endif
 697              		.loc 1 640 18 is_stmt 0 view .LVU240
 698 00a2 2F44     		add	r7, r7, r5
 699              	.LVL82:
 640:RTT/SEGGER_RTT.c **** #endif
 700              		.loc 1 640 18 view .LVU241
 701 00a4 C3E7     		b	.L31
 702              	.L40:
 703 00a6 00BF     		.align	2
 704              	.L39:
 705 00a8 00000000 		.word	.LANCHOR1
 706              		.cfi_endproc
 707              	.LFE5:
 709              		.section	.text.SEGGER_RTT_ReadNoLock,"ax",%progbits
 710              		.align	1
 711              		.global	SEGGER_RTT_ReadNoLock
 712              		.syntax unified
 713              		.thumb
 714              		.thumb_func
ARM GAS  C:\Users\wizar\AppData\Local\Temp\ccRaZdSN.s 			page 28


 716              	SEGGER_RTT_ReadNoLock:
 717              	.LVL83:
 718              	.LFB6:
 652:RTT/SEGGER_RTT.c **** 
 653:RTT/SEGGER_RTT.c **** /*********************************************************************
 654:RTT/SEGGER_RTT.c **** *
 655:RTT/SEGGER_RTT.c **** *       SEGGER_RTT_ReadNoLock()
 656:RTT/SEGGER_RTT.c **** *
 657:RTT/SEGGER_RTT.c **** *  Function description
 658:RTT/SEGGER_RTT.c **** *    Reads characters from SEGGER real-time-terminal control block
 659:RTT/SEGGER_RTT.c **** *    which have been previously stored by the host.
 660:RTT/SEGGER_RTT.c **** *    Do not lock against interrupts and multiple access.
 661:RTT/SEGGER_RTT.c **** *
 662:RTT/SEGGER_RTT.c **** *  Parameters
 663:RTT/SEGGER_RTT.c **** *    BufferIndex  Index of Down-buffer to be used (e.g. 0 for "Terminal").
 664:RTT/SEGGER_RTT.c **** *    pBuffer      Pointer to buffer provided by target application, to copy characters from RTT-dow
 665:RTT/SEGGER_RTT.c **** *    BufferSize   Size of the target application buffer.
 666:RTT/SEGGER_RTT.c **** *
 667:RTT/SEGGER_RTT.c **** *  Return value
 668:RTT/SEGGER_RTT.c **** *    Number of bytes that have been read.
 669:RTT/SEGGER_RTT.c **** */
 670:RTT/SEGGER_RTT.c **** unsigned SEGGER_RTT_ReadNoLock(unsigned BufferIndex, void* pData, unsigned BufferSize) {
 719              		.loc 1 670 88 is_stmt 1 view -0
 720              		.cfi_startproc
 721              		@ args = 0, pretend = 0, frame = 0
 722              		@ frame_needed = 0, uses_anonymous_args = 0
 723              		.loc 1 670 88 is_stmt 0 view .LVU243
 724 0000 2DE9F047 		push	{r4, r5, r6, r7, r8, r9, r10, lr}
 725              	.LCFI7:
 726              		.cfi_def_cfa_offset 32
 727              		.cfi_offset 4, -32
 728              		.cfi_offset 5, -28
 729              		.cfi_offset 6, -24
 730              		.cfi_offset 7, -20
 731              		.cfi_offset 8, -16
 732              		.cfi_offset 9, -12
 733              		.cfi_offset 10, -8
 734              		.cfi_offset 14, -4
 735 0004 0446     		mov	r4, r0
 736 0006 8846     		mov	r8, r1
 737 0008 9146     		mov	r9, r2
 671:RTT/SEGGER_RTT.c ****   unsigned                NumBytesRem;
 738              		.loc 1 671 3 is_stmt 1 view .LVU244
 672:RTT/SEGGER_RTT.c ****   unsigned                NumBytesRead;
 739              		.loc 1 672 3 view .LVU245
 673:RTT/SEGGER_RTT.c ****   unsigned                RdOff;
 740              		.loc 1 673 3 view .LVU246
 674:RTT/SEGGER_RTT.c ****   unsigned                WrOff;
 741              		.loc 1 674 3 view .LVU247
 675:RTT/SEGGER_RTT.c ****   unsigned char*          pBuffer;
 742              		.loc 1 675 3 view .LVU248
 676:RTT/SEGGER_RTT.c ****   SEGGER_RTT_BUFFER_DOWN* pRing;
 743              		.loc 1 676 3 view .LVU249
 677:RTT/SEGGER_RTT.c ****   volatile char*          pSrc;
 744              		.loc 1 677 3 view .LVU250
 745              	.LBB4:
 678:RTT/SEGGER_RTT.c ****   //
ARM GAS  C:\Users\wizar\AppData\Local\Temp\ccRaZdSN.s 			page 29


 679:RTT/SEGGER_RTT.c ****   INIT();
 746              		.loc 1 679 3 view .LVU251
 747              		.loc 1 679 3 view .LVU252
 748              	.LVL84:
 749              		.loc 1 679 3 view .LVU253
 750              		.loc 1 679 3 view .LVU254
 751 000a 244B     		ldr	r3, .L52
 752 000c 1B78     		ldrb	r3, [r3]	@ zero_extendqisi2
 753 000e C3B1     		cbz	r3, .L49
 754              	.LVL85:
 755              	.L42:
 756              		.loc 1 679 3 discriminator 3 view .LVU255
 757              	.LBE4:
 758              		.loc 1 679 9 discriminator 3 view .LVU256
 680:RTT/SEGGER_RTT.c ****   pRing = (SEGGER_RTT_BUFFER_DOWN*)((char*)&_SEGGER_RTT.aDown[BufferIndex] + SEGGER_RTT_UNCACHED_OF
 759              		.loc 1 680 3 discriminator 3 view .LVU257
 681:RTT/SEGGER_RTT.c ****   pBuffer = (unsigned char*)pData;
 760              		.loc 1 681 3 discriminator 3 view .LVU258
 682:RTT/SEGGER_RTT.c ****   RdOff = pRing->RdOff;
 761              		.loc 1 682 3 discriminator 3 view .LVU259
 762              		.loc 1 682 9 is_stmt 0 discriminator 3 view .LVU260
 763 0010 04EB4403 		add	r3, r4, r4, lsl #1
 764 0014 214A     		ldr	r2, .L52
 765 0016 02EBC303 		add	r3, r2, r3, lsl #3
 766 001a 1F6F     		ldr	r7, [r3, #112]
 767              	.LVL86:
 683:RTT/SEGGER_RTT.c ****   WrOff = pRing->WrOff;
 768              		.loc 1 683 3 is_stmt 1 discriminator 3 view .LVU261
 769              		.loc 1 683 9 is_stmt 0 discriminator 3 view .LVU262
 770 001c DD6E     		ldr	r5, [r3, #108]
 771              	.LVL87:
 684:RTT/SEGGER_RTT.c ****   NumBytesRead = 0u;
 772              		.loc 1 684 3 is_stmt 1 discriminator 3 view .LVU263
 685:RTT/SEGGER_RTT.c ****   //
 686:RTT/SEGGER_RTT.c ****   // Read from current read position to wrap-around of buffer, first
 687:RTT/SEGGER_RTT.c ****   //
 688:RTT/SEGGER_RTT.c ****   if (RdOff > WrOff) {
 773              		.loc 1 688 3 discriminator 3 view .LVU264
 774              		.loc 1 688 6 is_stmt 0 discriminator 3 view .LVU265
 775 001e AF42     		cmp	r7, r5
 776 0020 12D8     		bhi	.L50
 684:RTT/SEGGER_RTT.c ****   NumBytesRead = 0u;
 777              		.loc 1 684 16 view .LVU266
 778 0022 0026     		movs	r6, #0
 779              	.LVL88:
 780              	.L43:
 689:RTT/SEGGER_RTT.c ****     NumBytesRem = pRing->SizeOfBuffer - RdOff;
 690:RTT/SEGGER_RTT.c ****     NumBytesRem = MIN(NumBytesRem, BufferSize);
 691:RTT/SEGGER_RTT.c ****     pSrc = (pRing->pBuffer + RdOff) + SEGGER_RTT_UNCACHED_OFF;
 692:RTT/SEGGER_RTT.c **** #if SEGGER_RTT_MEMCPY_USE_BYTELOOP
 693:RTT/SEGGER_RTT.c ****     NumBytesRead += NumBytesRem;
 694:RTT/SEGGER_RTT.c ****     BufferSize   -= NumBytesRem;
 695:RTT/SEGGER_RTT.c ****     RdOff        += NumBytesRem;
 696:RTT/SEGGER_RTT.c ****     while (NumBytesRem--) {
 697:RTT/SEGGER_RTT.c ****       *pBuffer++ = *pSrc++;
 698:RTT/SEGGER_RTT.c ****     };
 699:RTT/SEGGER_RTT.c **** #else
ARM GAS  C:\Users\wizar\AppData\Local\Temp\ccRaZdSN.s 			page 30


 700:RTT/SEGGER_RTT.c ****     SEGGER_RTT_MEMCPY(pBuffer, (void*)pSrc, NumBytesRem);
 701:RTT/SEGGER_RTT.c ****     NumBytesRead += NumBytesRem;
 702:RTT/SEGGER_RTT.c ****     pBuffer      += NumBytesRem;
 703:RTT/SEGGER_RTT.c ****     BufferSize   -= NumBytesRem;
 704:RTT/SEGGER_RTT.c ****     RdOff        += NumBytesRem;
 705:RTT/SEGGER_RTT.c **** #endif
 706:RTT/SEGGER_RTT.c ****     //
 707:RTT/SEGGER_RTT.c ****     // Handle wrap-around of buffer
 708:RTT/SEGGER_RTT.c ****     //
 709:RTT/SEGGER_RTT.c ****     if (RdOff == pRing->SizeOfBuffer) {
 710:RTT/SEGGER_RTT.c ****       RdOff = 0u;
 711:RTT/SEGGER_RTT.c ****     }
 712:RTT/SEGGER_RTT.c ****   }
 713:RTT/SEGGER_RTT.c ****   //
 714:RTT/SEGGER_RTT.c ****   // Read remaining items of buffer
 715:RTT/SEGGER_RTT.c ****   //
 716:RTT/SEGGER_RTT.c ****   NumBytesRem = WrOff - RdOff;
 781              		.loc 1 716 3 is_stmt 1 view .LVU267
 782              		.loc 1 716 15 is_stmt 0 view .LVU268
 783 0024 ED1B     		subs	r5, r5, r7
 784              	.LVL89:
 717:RTT/SEGGER_RTT.c ****   NumBytesRem = MIN(NumBytesRem, BufferSize);
 785              		.loc 1 717 3 is_stmt 1 view .LVU269
 786              		.loc 1 717 15 is_stmt 0 view .LVU270
 787 0026 4D45     		cmp	r5, r9
 788 0028 28BF     		it	cs
 789 002a 4D46     		movcs	r5, r9
 790              	.LVL90:
 718:RTT/SEGGER_RTT.c ****   if (NumBytesRem > 0u) {
 791              		.loc 1 718 3 is_stmt 1 view .LVU271
 792              		.loc 1 718 6 is_stmt 0 view .LVU272
 793 002c 3DBB     		cbnz	r5, .L51
 794              	.LVL91:
 795              	.L44:
 719:RTT/SEGGER_RTT.c ****     pSrc = (pRing->pBuffer + RdOff) + SEGGER_RTT_UNCACHED_OFF;
 720:RTT/SEGGER_RTT.c **** #if SEGGER_RTT_MEMCPY_USE_BYTELOOP
 721:RTT/SEGGER_RTT.c ****     NumBytesRead += NumBytesRem;
 722:RTT/SEGGER_RTT.c ****     BufferSize   -= NumBytesRem;
 723:RTT/SEGGER_RTT.c ****     RdOff        += NumBytesRem;
 724:RTT/SEGGER_RTT.c ****     while (NumBytesRem--) {
 725:RTT/SEGGER_RTT.c ****       *pBuffer++ = *pSrc++;
 726:RTT/SEGGER_RTT.c ****     };
 727:RTT/SEGGER_RTT.c **** #else
 728:RTT/SEGGER_RTT.c ****     SEGGER_RTT_MEMCPY(pBuffer, (void*)pSrc, NumBytesRem);
 729:RTT/SEGGER_RTT.c ****     NumBytesRead += NumBytesRem;
 730:RTT/SEGGER_RTT.c ****     pBuffer      += NumBytesRem;
 731:RTT/SEGGER_RTT.c ****     BufferSize   -= NumBytesRem;
 732:RTT/SEGGER_RTT.c ****     RdOff        += NumBytesRem;
 733:RTT/SEGGER_RTT.c **** #endif
 734:RTT/SEGGER_RTT.c ****   }
 735:RTT/SEGGER_RTT.c ****   if (NumBytesRead) {
 796              		.loc 1 735 3 is_stmt 1 view .LVU273
 797              		.loc 1 735 6 is_stmt 0 view .LVU274
 798 002e 2EB1     		cbz	r6, .L41
 736:RTT/SEGGER_RTT.c ****     pRing->RdOff = RdOff;
 799              		.loc 1 736 5 is_stmt 1 view .LVU275
 800              		.loc 1 736 18 is_stmt 0 view .LVU276
ARM GAS  C:\Users\wizar\AppData\Local\Temp\ccRaZdSN.s 			page 31


 801 0030 04EB4404 		add	r4, r4, r4, lsl #1
 802              	.LVL92:
 803              		.loc 1 736 18 view .LVU277
 804 0034 1948     		ldr	r0, .L52
 805 0036 00EBC404 		add	r4, r0, r4, lsl #3
 806 003a 2767     		str	r7, [r4, #112]
 737:RTT/SEGGER_RTT.c ****   }
 738:RTT/SEGGER_RTT.c ****   //
 739:RTT/SEGGER_RTT.c ****   return NumBytesRead;
 807              		.loc 1 739 3 is_stmt 1 view .LVU278
 808              	.L41:
 740:RTT/SEGGER_RTT.c **** }
 809              		.loc 1 740 1 is_stmt 0 view .LVU279
 810 003c 3046     		mov	r0, r6
 811 003e BDE8F087 		pop	{r4, r5, r6, r7, r8, r9, r10, pc}
 812              	.LVL93:
 813              	.L49:
 814              	.LBB5:
 679:RTT/SEGGER_RTT.c ****   pRing = (SEGGER_RTT_BUFFER_DOWN*)((char*)&_SEGGER_RTT.aDown[BufferIndex] + SEGGER_RTT_UNCACHED_OF
 815              		.loc 1 679 3 is_stmt 1 discriminator 1 view .LVU280
 816 0042 FFF7FEFF 		bl	_DoInit
 817              	.LVL94:
 679:RTT/SEGGER_RTT.c ****   pRing = (SEGGER_RTT_BUFFER_DOWN*)((char*)&_SEGGER_RTT.aDown[BufferIndex] + SEGGER_RTT_UNCACHED_OF
 818              		.loc 1 679 3 is_stmt 0 discriminator 1 view .LVU281
 819 0046 E3E7     		b	.L42
 820              	.LVL95:
 821              	.L50:
 679:RTT/SEGGER_RTT.c ****   pRing = (SEGGER_RTT_BUFFER_DOWN*)((char*)&_SEGGER_RTT.aDown[BufferIndex] + SEGGER_RTT_UNCACHED_OF
 822              		.loc 1 679 3 discriminator 1 view .LVU282
 823              	.LBE5:
 689:RTT/SEGGER_RTT.c ****     NumBytesRem = MIN(NumBytesRem, BufferSize);
 824              		.loc 1 689 5 is_stmt 1 view .LVU283
 689:RTT/SEGGER_RTT.c ****     NumBytesRem = MIN(NumBytesRem, BufferSize);
 825              		.loc 1 689 24 is_stmt 0 view .LVU284
 826 0048 04EB440A 		add	r10, r4, r4, lsl #1
 827 004c 02EBCA0A 		add	r10, r2, r10, lsl #3
 828 0050 DAF86860 		ldr	r6, [r10, #104]
 689:RTT/SEGGER_RTT.c ****     NumBytesRem = MIN(NumBytesRem, BufferSize);
 829              		.loc 1 689 17 view .LVU285
 830 0054 F61B     		subs	r6, r6, r7
 831              	.LVL96:
 690:RTT/SEGGER_RTT.c ****     pSrc = (pRing->pBuffer + RdOff) + SEGGER_RTT_UNCACHED_OFF;
 832              		.loc 1 690 5 is_stmt 1 view .LVU286
 690:RTT/SEGGER_RTT.c ****     pSrc = (pRing->pBuffer + RdOff) + SEGGER_RTT_UNCACHED_OFF;
 833              		.loc 1 690 17 is_stmt 0 view .LVU287
 834 0056 4E45     		cmp	r6, r9
 835 0058 28BF     		it	cs
 836 005a 4E46     		movcs	r6, r9
 837              	.LVL97:
 691:RTT/SEGGER_RTT.c **** #if SEGGER_RTT_MEMCPY_USE_BYTELOOP
 838              		.loc 1 691 5 is_stmt 1 view .LVU288
 691:RTT/SEGGER_RTT.c **** #if SEGGER_RTT_MEMCPY_USE_BYTELOOP
 839              		.loc 1 691 18 is_stmt 0 view .LVU289
 840 005c DAF86410 		ldr	r1, [r10, #100]
 841              	.LVL98:
 700:RTT/SEGGER_RTT.c ****     NumBytesRead += NumBytesRem;
 842              		.loc 1 700 5 is_stmt 1 view .LVU290
ARM GAS  C:\Users\wizar\AppData\Local\Temp\ccRaZdSN.s 			page 32


 843 0060 3246     		mov	r2, r6
 844 0062 3944     		add	r1, r1, r7
 845              	.LVL99:
 700:RTT/SEGGER_RTT.c ****     NumBytesRead += NumBytesRem;
 846              		.loc 1 700 5 is_stmt 0 view .LVU291
 847 0064 4046     		mov	r0, r8
 848 0066 FFF7FEFF 		bl	memcpy
 849              	.LVL100:
 701:RTT/SEGGER_RTT.c ****     pBuffer      += NumBytesRem;
 850              		.loc 1 701 5 is_stmt 1 view .LVU292
 702:RTT/SEGGER_RTT.c ****     BufferSize   -= NumBytesRem;
 851              		.loc 1 702 5 view .LVU293
 702:RTT/SEGGER_RTT.c ****     BufferSize   -= NumBytesRem;
 852              		.loc 1 702 18 is_stmt 0 view .LVU294
 853 006a B044     		add	r8, r8, r6
 854              	.LVL101:
 703:RTT/SEGGER_RTT.c ****     RdOff        += NumBytesRem;
 855              		.loc 1 703 5 is_stmt 1 view .LVU295
 703:RTT/SEGGER_RTT.c ****     RdOff        += NumBytesRem;
 856              		.loc 1 703 18 is_stmt 0 view .LVU296
 857 006c A9EB0609 		sub	r9, r9, r6
 858              	.LVL102:
 704:RTT/SEGGER_RTT.c **** #endif
 859              		.loc 1 704 5 is_stmt 1 view .LVU297
 704:RTT/SEGGER_RTT.c **** #endif
 860              		.loc 1 704 18 is_stmt 0 view .LVU298
 861 0070 3744     		add	r7, r7, r6
 862              	.LVL103:
 709:RTT/SEGGER_RTT.c ****       RdOff = 0u;
 863              		.loc 1 709 5 is_stmt 1 view .LVU299
 709:RTT/SEGGER_RTT.c ****       RdOff = 0u;
 864              		.loc 1 709 23 is_stmt 0 view .LVU300
 865 0072 DAF86830 		ldr	r3, [r10, #104]
 709:RTT/SEGGER_RTT.c ****       RdOff = 0u;
 866              		.loc 1 709 8 view .LVU301
 867 0076 BB42     		cmp	r3, r7
 868 0078 D4D1     		bne	.L43
 710:RTT/SEGGER_RTT.c ****     }
 869              		.loc 1 710 13 view .LVU302
 870 007a 0027     		movs	r7, #0
 871              	.LVL104:
 710:RTT/SEGGER_RTT.c ****     }
 872              		.loc 1 710 13 view .LVU303
 873 007c D2E7     		b	.L43
 874              	.LVL105:
 875              	.L51:
 719:RTT/SEGGER_RTT.c **** #if SEGGER_RTT_MEMCPY_USE_BYTELOOP
 876              		.loc 1 719 5 is_stmt 1 view .LVU304
 719:RTT/SEGGER_RTT.c **** #if SEGGER_RTT_MEMCPY_USE_BYTELOOP
 877              		.loc 1 719 18 is_stmt 0 view .LVU305
 878 007e 04EB4403 		add	r3, r4, r4, lsl #1
 879 0082 064A     		ldr	r2, .L52
 880 0084 02EBC303 		add	r3, r2, r3, lsl #3
 881 0088 596E     		ldr	r1, [r3, #100]
 882              	.LVL106:
 728:RTT/SEGGER_RTT.c ****     NumBytesRead += NumBytesRem;
 883              		.loc 1 728 5 is_stmt 1 view .LVU306
ARM GAS  C:\Users\wizar\AppData\Local\Temp\ccRaZdSN.s 			page 33


 884 008a 2A46     		mov	r2, r5
 885 008c 3944     		add	r1, r1, r7
 886              	.LVL107:
 728:RTT/SEGGER_RTT.c ****     NumBytesRead += NumBytesRem;
 887              		.loc 1 728 5 is_stmt 0 view .LVU307
 888 008e 4046     		mov	r0, r8
 889 0090 FFF7FEFF 		bl	memcpy
 890              	.LVL108:
 729:RTT/SEGGER_RTT.c ****     pBuffer      += NumBytesRem;
 891              		.loc 1 729 5 is_stmt 1 view .LVU308
 729:RTT/SEGGER_RTT.c ****     pBuffer      += NumBytesRem;
 892              		.loc 1 729 18 is_stmt 0 view .LVU309
 893 0094 2E44     		add	r6, r6, r5
 894              	.LVL109:
 730:RTT/SEGGER_RTT.c ****     BufferSize   -= NumBytesRem;
 895              		.loc 1 730 5 is_stmt 1 view .LVU310
 731:RTT/SEGGER_RTT.c ****     RdOff        += NumBytesRem;
 896              		.loc 1 731 5 view .LVU311
 732:RTT/SEGGER_RTT.c **** #endif
 897              		.loc 1 732 5 view .LVU312
 732:RTT/SEGGER_RTT.c **** #endif
 898              		.loc 1 732 18 is_stmt 0 view .LVU313
 899 0096 2F44     		add	r7, r7, r5
 900              	.LVL110:
 732:RTT/SEGGER_RTT.c **** #endif
 901              		.loc 1 732 18 view .LVU314
 902 0098 C9E7     		b	.L44
 903              	.L53:
 904 009a 00BF     		.align	2
 905              	.L52:
 906 009c 00000000 		.word	.LANCHOR1
 907              		.cfi_endproc
 908              	.LFE6:
 910              		.section	.text.SEGGER_RTT_ReadUpBuffer,"ax",%progbits
 911              		.align	1
 912              		.global	SEGGER_RTT_ReadUpBuffer
 913              		.syntax unified
 914              		.thumb
 915              		.thumb_func
 917              	SEGGER_RTT_ReadUpBuffer:
 918              	.LVL111:
 919              	.LFB7:
 741:RTT/SEGGER_RTT.c **** 
 742:RTT/SEGGER_RTT.c **** /*********************************************************************
 743:RTT/SEGGER_RTT.c **** *
 744:RTT/SEGGER_RTT.c **** *       SEGGER_RTT_ReadUpBuffer
 745:RTT/SEGGER_RTT.c **** *
 746:RTT/SEGGER_RTT.c **** *  Function description
 747:RTT/SEGGER_RTT.c **** *    Reads characters from SEGGER real-time-terminal control block
 748:RTT/SEGGER_RTT.c **** *    which have been previously stored by the application.
 749:RTT/SEGGER_RTT.c **** *    Used to do the same operation that J-Link does, to transfer 
 750:RTT/SEGGER_RTT.c **** *    RTT data via other channels, such as TCP/IP or UART.
 751:RTT/SEGGER_RTT.c **** *
 752:RTT/SEGGER_RTT.c **** *  Parameters
 753:RTT/SEGGER_RTT.c **** *    BufferIndex  Index of Up-buffer to be used.
 754:RTT/SEGGER_RTT.c **** *    pBuffer      Pointer to buffer provided by target application, to copy characters from RTT-up-
 755:RTT/SEGGER_RTT.c **** *    BufferSize   Size of the target application buffer.
ARM GAS  C:\Users\wizar\AppData\Local\Temp\ccRaZdSN.s 			page 34


 756:RTT/SEGGER_RTT.c **** *
 757:RTT/SEGGER_RTT.c **** *  Return value
 758:RTT/SEGGER_RTT.c **** *    Number of bytes that have been read.
 759:RTT/SEGGER_RTT.c **** *
 760:RTT/SEGGER_RTT.c **** *  Additional information
 761:RTT/SEGGER_RTT.c **** *    This function must not be called when J-Link might also do RTT.
 762:RTT/SEGGER_RTT.c **** *    This function locks against all other RTT operations. I.e. during
 763:RTT/SEGGER_RTT.c **** *    the read operation, writing is also locked.
 764:RTT/SEGGER_RTT.c **** *    If only one consumer reads from the up buffer, 
 765:RTT/SEGGER_RTT.c **** *    call sEGGER_RTT_ReadUpBufferNoLock() instead.
 766:RTT/SEGGER_RTT.c **** */
 767:RTT/SEGGER_RTT.c **** unsigned SEGGER_RTT_ReadUpBuffer(unsigned BufferIndex, void* pBuffer, unsigned BufferSize) {
 920              		.loc 1 767 92 is_stmt 1 view -0
 921              		.cfi_startproc
 922              		@ args = 0, pretend = 0, frame = 0
 923              		@ frame_needed = 0, uses_anonymous_args = 0
 924              		.loc 1 767 92 is_stmt 0 view .LVU316
 925 0000 10B5     		push	{r4, lr}
 926              	.LCFI8:
 927              		.cfi_def_cfa_offset 8
 928              		.cfi_offset 4, -8
 929              		.cfi_offset 14, -4
 930 0002 0B46     		mov	r3, r1
 768:RTT/SEGGER_RTT.c ****   unsigned NumBytesRead;
 931              		.loc 1 768 3 is_stmt 1 view .LVU317
 932              	.LBB6:
 769:RTT/SEGGER_RTT.c **** 
 770:RTT/SEGGER_RTT.c ****   SEGGER_RTT_LOCK();
 933              		.loc 1 770 3 view .LVU318
 934              		.loc 1 770 3 view .LVU319
 935              		.syntax unified
 936              	@ 770 "RTT/SEGGER_RTT.c" 1
 937 0004 EFF31184 		mrs   r4, basepri  
 938 0008 4FF02001 		mov   r1, #32       
 939 000c 81F31188 		msr   basepri, r1  
 940              		
 941              	@ 0 "" 2
 942              	.LVL112:
 943              		.loc 1 770 20 view .LVU320
 771:RTT/SEGGER_RTT.c ****   //
 772:RTT/SEGGER_RTT.c ****   // Call the non-locking read function
 773:RTT/SEGGER_RTT.c ****   //
 774:RTT/SEGGER_RTT.c ****   NumBytesRead = SEGGER_RTT_ReadUpBufferNoLock(BufferIndex, pBuffer, BufferSize);
 944              		.loc 1 774 3 view .LVU321
 945              		.loc 1 774 18 is_stmt 0 view .LVU322
 946              		.thumb
 947              		.syntax unified
 948 0010 1946     		mov	r1, r3
 949 0012 FFF7FEFF 		bl	SEGGER_RTT_ReadUpBufferNoLock
 950              	.LVL113:
 775:RTT/SEGGER_RTT.c ****   //
 776:RTT/SEGGER_RTT.c ****   // Finish up.
 777:RTT/SEGGER_RTT.c ****   //
 778:RTT/SEGGER_RTT.c ****   SEGGER_RTT_UNLOCK();
 951              		.loc 1 778 3 is_stmt 1 view .LVU323
 952              		.syntax unified
 953              	@ 778 "RTT/SEGGER_RTT.c" 1
ARM GAS  C:\Users\wizar\AppData\Local\Temp\ccRaZdSN.s 			page 35


 954 0016 84F31188 		msr   basepri, r4  
 955              		
 956              	@ 0 "" 2
 957              		.thumb
 958              		.syntax unified
 959              	.LBE6:
 960              		.loc 1 778 22 view .LVU324
 779:RTT/SEGGER_RTT.c ****   //
 780:RTT/SEGGER_RTT.c ****   return NumBytesRead;
 961              		.loc 1 780 3 view .LVU325
 781:RTT/SEGGER_RTT.c **** }
 962              		.loc 1 781 1 is_stmt 0 view .LVU326
 963 001a 10BD     		pop	{r4, pc}
 964              		.loc 1 781 1 view .LVU327
 965              		.cfi_endproc
 966              	.LFE7:
 968              		.section	.text.SEGGER_RTT_Read,"ax",%progbits
 969              		.align	1
 970              		.global	SEGGER_RTT_Read
 971              		.syntax unified
 972              		.thumb
 973              		.thumb_func
 975              	SEGGER_RTT_Read:
 976              	.LVL114:
 977              	.LFB8:
 782:RTT/SEGGER_RTT.c **** 
 783:RTT/SEGGER_RTT.c **** /*********************************************************************
 784:RTT/SEGGER_RTT.c **** *
 785:RTT/SEGGER_RTT.c **** *       SEGGER_RTT_Read
 786:RTT/SEGGER_RTT.c **** *
 787:RTT/SEGGER_RTT.c **** *  Function description
 788:RTT/SEGGER_RTT.c **** *    Reads characters from SEGGER real-time-terminal control block
 789:RTT/SEGGER_RTT.c **** *    which have been previously stored by the host.
 790:RTT/SEGGER_RTT.c **** *
 791:RTT/SEGGER_RTT.c **** *  Parameters
 792:RTT/SEGGER_RTT.c **** *    BufferIndex  Index of Down-buffer to be used (e.g. 0 for "Terminal").
 793:RTT/SEGGER_RTT.c **** *    pBuffer      Pointer to buffer provided by target application, to copy characters from RTT-dow
 794:RTT/SEGGER_RTT.c **** *    BufferSize   Size of the target application buffer.
 795:RTT/SEGGER_RTT.c **** *
 796:RTT/SEGGER_RTT.c **** *  Return value
 797:RTT/SEGGER_RTT.c **** *    Number of bytes that have been read.
 798:RTT/SEGGER_RTT.c **** */
 799:RTT/SEGGER_RTT.c **** unsigned SEGGER_RTT_Read(unsigned BufferIndex, void* pBuffer, unsigned BufferSize) {
 978              		.loc 1 799 84 is_stmt 1 view -0
 979              		.cfi_startproc
 980              		@ args = 0, pretend = 0, frame = 0
 981              		@ frame_needed = 0, uses_anonymous_args = 0
 982              		.loc 1 799 84 is_stmt 0 view .LVU329
 983 0000 10B5     		push	{r4, lr}
 984              	.LCFI9:
 985              		.cfi_def_cfa_offset 8
 986              		.cfi_offset 4, -8
 987              		.cfi_offset 14, -4
 988 0002 0B46     		mov	r3, r1
 800:RTT/SEGGER_RTT.c ****   unsigned NumBytesRead;
 989              		.loc 1 800 3 is_stmt 1 view .LVU330
 990              	.LBB7:
ARM GAS  C:\Users\wizar\AppData\Local\Temp\ccRaZdSN.s 			page 36


 801:RTT/SEGGER_RTT.c **** 
 802:RTT/SEGGER_RTT.c ****   SEGGER_RTT_LOCK();
 991              		.loc 1 802 3 view .LVU331
 992              		.loc 1 802 3 view .LVU332
 993              		.syntax unified
 994              	@ 802 "RTT/SEGGER_RTT.c" 1
 995 0004 EFF31184 		mrs   r4, basepri  
 996 0008 4FF02001 		mov   r1, #32       
 997 000c 81F31188 		msr   basepri, r1  
 998              		
 999              	@ 0 "" 2
 1000              	.LVL115:
 1001              		.loc 1 802 20 view .LVU333
 803:RTT/SEGGER_RTT.c ****   //
 804:RTT/SEGGER_RTT.c ****   // Call the non-locking read function
 805:RTT/SEGGER_RTT.c ****   //
 806:RTT/SEGGER_RTT.c ****   NumBytesRead = SEGGER_RTT_ReadNoLock(BufferIndex, pBuffer, BufferSize);
 1002              		.loc 1 806 3 view .LVU334
 1003              		.loc 1 806 18 is_stmt 0 view .LVU335
 1004              		.thumb
 1005              		.syntax unified
 1006 0010 1946     		mov	r1, r3
 1007 0012 FFF7FEFF 		bl	SEGGER_RTT_ReadNoLock
 1008              	.LVL116:
 807:RTT/SEGGER_RTT.c ****   //
 808:RTT/SEGGER_RTT.c ****   // Finish up.
 809:RTT/SEGGER_RTT.c ****   //
 810:RTT/SEGGER_RTT.c ****   SEGGER_RTT_UNLOCK();
 1009              		.loc 1 810 3 is_stmt 1 view .LVU336
 1010              		.syntax unified
 1011              	@ 810 "RTT/SEGGER_RTT.c" 1
 1012 0016 84F31188 		msr   basepri, r4  
 1013              		
 1014              	@ 0 "" 2
 1015              		.thumb
 1016              		.syntax unified
 1017              	.LBE7:
 1018              		.loc 1 810 22 view .LVU337
 811:RTT/SEGGER_RTT.c ****   //
 812:RTT/SEGGER_RTT.c ****   return NumBytesRead;
 1019              		.loc 1 812 3 view .LVU338
 813:RTT/SEGGER_RTT.c **** }
 1020              		.loc 1 813 1 is_stmt 0 view .LVU339
 1021 001a 10BD     		pop	{r4, pc}
 1022              		.loc 1 813 1 view .LVU340
 1023              		.cfi_endproc
 1024              	.LFE8:
 1026              		.section	.text.SEGGER_RTT_WriteWithOverwriteNoLock,"ax",%progbits
 1027              		.align	1
 1028              		.global	SEGGER_RTT_WriteWithOverwriteNoLock
 1029              		.syntax unified
 1030              		.thumb
 1031              		.thumb_func
 1033              	SEGGER_RTT_WriteWithOverwriteNoLock:
 1034              	.LVL117:
 1035              	.LFB9:
 814:RTT/SEGGER_RTT.c **** 
ARM GAS  C:\Users\wizar\AppData\Local\Temp\ccRaZdSN.s 			page 37


 815:RTT/SEGGER_RTT.c **** /*********************************************************************
 816:RTT/SEGGER_RTT.c **** *
 817:RTT/SEGGER_RTT.c **** *       SEGGER_RTT_WriteWithOverwriteNoLock
 818:RTT/SEGGER_RTT.c **** *
 819:RTT/SEGGER_RTT.c **** *  Function description
 820:RTT/SEGGER_RTT.c **** *    Stores a specified number of characters in SEGGER RTT
 821:RTT/SEGGER_RTT.c **** *    control block.
 822:RTT/SEGGER_RTT.c **** *    SEGGER_RTT_WriteWithOverwriteNoLock does not lock the application 
 823:RTT/SEGGER_RTT.c **** *    and overwrites data if the data does not fit into the buffer.
 824:RTT/SEGGER_RTT.c **** *
 825:RTT/SEGGER_RTT.c **** *  Parameters
 826:RTT/SEGGER_RTT.c **** *    BufferIndex  Index of "Up"-buffer to be used (e.g. 0 for "Terminal").
 827:RTT/SEGGER_RTT.c **** *    pBuffer      Pointer to character array. Does not need to point to a \0 terminated string.
 828:RTT/SEGGER_RTT.c **** *    NumBytes     Number of bytes to be stored in the SEGGER RTT control block.
 829:RTT/SEGGER_RTT.c **** *
 830:RTT/SEGGER_RTT.c **** *  Notes
 831:RTT/SEGGER_RTT.c **** *    (1) If there is not enough space in the "Up"-buffer, data is overwritten.
 832:RTT/SEGGER_RTT.c **** *    (2) For performance reasons this function does not call Init()
 833:RTT/SEGGER_RTT.c **** *        and may only be called after RTT has been initialized.
 834:RTT/SEGGER_RTT.c **** *        Either by calling SEGGER_RTT_Init() or calling another RTT API function first.
 835:RTT/SEGGER_RTT.c **** *    (3) Do not use SEGGER_RTT_WriteWithOverwriteNoLock if a J-Link 
 836:RTT/SEGGER_RTT.c **** *        connection reads RTT data.
 837:RTT/SEGGER_RTT.c **** */
 838:RTT/SEGGER_RTT.c **** void SEGGER_RTT_WriteWithOverwriteNoLock(unsigned BufferIndex, const void* pBuffer, unsigned NumByt
 1036              		.loc 1 838 104 is_stmt 1 view -0
 1037              		.cfi_startproc
 1038              		@ args = 0, pretend = 0, frame = 0
 1039              		@ frame_needed = 0, uses_anonymous_args = 0
 1040              		.loc 1 838 104 is_stmt 0 view .LVU342
 1041 0000 2DE9F843 		push	{r3, r4, r5, r6, r7, r8, r9, lr}
 1042              	.LCFI10:
 1043              		.cfi_def_cfa_offset 32
 1044              		.cfi_offset 3, -32
 1045              		.cfi_offset 4, -28
 1046              		.cfi_offset 5, -24
 1047              		.cfi_offset 6, -20
 1048              		.cfi_offset 7, -16
 1049              		.cfi_offset 8, -12
 1050              		.cfi_offset 9, -8
 1051              		.cfi_offset 14, -4
 1052 0004 0646     		mov	r6, r0
 1053 0006 8846     		mov	r8, r1
 1054 0008 1746     		mov	r7, r2
 839:RTT/SEGGER_RTT.c ****   const char*           pData;
 1055              		.loc 1 839 3 is_stmt 1 view .LVU343
 840:RTT/SEGGER_RTT.c ****   SEGGER_RTT_BUFFER_UP* pRing;
 1056              		.loc 1 840 3 view .LVU344
 841:RTT/SEGGER_RTT.c ****   unsigned              Avail;
 1057              		.loc 1 841 3 view .LVU345
 842:RTT/SEGGER_RTT.c ****   volatile char*        pDst;
 1058              		.loc 1 842 3 view .LVU346
 843:RTT/SEGGER_RTT.c ****   //
 844:RTT/SEGGER_RTT.c ****   // Get "to-host" ring buffer and copy some elements into local variables.
 845:RTT/SEGGER_RTT.c ****   //
 846:RTT/SEGGER_RTT.c ****   pData = (const char *)pBuffer;
 1059              		.loc 1 846 3 view .LVU347
 1060              	.LVL118:
ARM GAS  C:\Users\wizar\AppData\Local\Temp\ccRaZdSN.s 			page 38


 847:RTT/SEGGER_RTT.c ****   pRing = (SEGGER_RTT_BUFFER_UP*)((char*)&_SEGGER_RTT.aUp[BufferIndex] + SEGGER_RTT_UNCACHED_OFF); 
 1061              		.loc 1 847 3 view .LVU348
 848:RTT/SEGGER_RTT.c ****   //
 849:RTT/SEGGER_RTT.c ****   // Check if we will overwrite data and need to adjust the RdOff.
 850:RTT/SEGGER_RTT.c ****   //
 851:RTT/SEGGER_RTT.c ****   if (pRing->WrOff == pRing->RdOff) {
 1062              		.loc 1 851 3 view .LVU349
 1063              		.loc 1 851 12 is_stmt 0 view .LVU350
 1064 000a 00EB4002 		add	r2, r0, r0, lsl #1
 1065              	.LVL119:
 1066              		.loc 1 851 12 view .LVU351
 1067 000e 3F4B     		ldr	r3, .L71
 1068 0010 03EBC203 		add	r3, r3, r2, lsl #3
 1069 0014 596A     		ldr	r1, [r3, #36]
 1070              	.LVL120:
 1071              		.loc 1 851 28 view .LVU352
 1072 0016 9B6A     		ldr	r3, [r3, #40]
 1073              		.loc 1 851 6 view .LVU353
 1074 0018 9942     		cmp	r1, r3
 1075 001a 0FD0     		beq	.L69
 852:RTT/SEGGER_RTT.c ****     Avail = pRing->SizeOfBuffer - 1u;
 853:RTT/SEGGER_RTT.c ****   } else if ( pRing->WrOff < pRing->RdOff) {
 1076              		.loc 1 853 10 is_stmt 1 view .LVU354
 1077              		.loc 1 853 35 is_stmt 0 view .LVU355
 1078 001c 00EB4003 		add	r3, r0, r0, lsl #1
 1079 0020 3A4A     		ldr	r2, .L71
 1080 0022 02EBC303 		add	r3, r2, r3, lsl #3
 1081 0026 9B6A     		ldr	r3, [r3, #40]
 1082              		.loc 1 853 13 view .LVU356
 1083 0028 9942     		cmp	r1, r3
 1084 002a 19D2     		bcs	.L61
 854:RTT/SEGGER_RTT.c ****     Avail = pRing->RdOff - pRing->WrOff - 1u;
 1085              		.loc 1 854 5 is_stmt 1 view .LVU357
 1086              		.loc 1 854 18 is_stmt 0 view .LVU358
 1087 002c 00EB4003 		add	r3, r0, r0, lsl #1
 1088 0030 02EBC303 		add	r3, r2, r3, lsl #3
 1089 0034 9B6A     		ldr	r3, [r3, #40]
 1090              		.loc 1 854 26 view .LVU359
 1091 0036 5B1A     		subs	r3, r3, r1
 1092              		.loc 1 854 11 view .LVU360
 1093 0038 013B     		subs	r3, r3, #1
 1094              	.LVL121:
 1095              		.loc 1 854 11 view .LVU361
 1096 003a 05E0     		b	.L60
 1097              	.LVL122:
 1098              	.L69:
 852:RTT/SEGGER_RTT.c ****     Avail = pRing->SizeOfBuffer - 1u;
 1099              		.loc 1 852 5 is_stmt 1 view .LVU362
 852:RTT/SEGGER_RTT.c ****     Avail = pRing->SizeOfBuffer - 1u;
 1100              		.loc 1 852 18 is_stmt 0 view .LVU363
 1101 003c 1346     		mov	r3, r2
 1102 003e 334A     		ldr	r2, .L71
 1103 0040 02EBC303 		add	r3, r2, r3, lsl #3
 1104 0044 1B6A     		ldr	r3, [r3, #32]
 852:RTT/SEGGER_RTT.c ****     Avail = pRing->SizeOfBuffer - 1u;
 1105              		.loc 1 852 11 view .LVU364
 1106 0046 013B     		subs	r3, r3, #1
ARM GAS  C:\Users\wizar\AppData\Local\Temp\ccRaZdSN.s 			page 39


 1107              	.LVL123:
 1108              	.L60:
 855:RTT/SEGGER_RTT.c ****   } else {
 856:RTT/SEGGER_RTT.c ****     Avail = pRing->RdOff - pRing->WrOff - 1u + pRing->SizeOfBuffer;
 857:RTT/SEGGER_RTT.c ****   }
 858:RTT/SEGGER_RTT.c ****   if (NumBytes > Avail) {
 1109              		.loc 1 858 3 is_stmt 1 view .LVU365
 1110              		.loc 1 858 6 is_stmt 0 view .LVU366
 1111 0048 BB42     		cmp	r3, r7
 1112 004a 25D2     		bcs	.L62
 859:RTT/SEGGER_RTT.c ****     pRing->RdOff += (NumBytes - Avail);
 1113              		.loc 1 859 5 is_stmt 1 view .LVU367
 1114              		.loc 1 859 18 is_stmt 0 view .LVU368
 1115 004c 06EB4602 		add	r2, r6, r6, lsl #1
 1116 0050 2E48     		ldr	r0, .L71
 1117              	.LVL124:
 1118              		.loc 1 859 18 view .LVU369
 1119 0052 00EBC202 		add	r2, r0, r2, lsl #3
 1120 0056 906A     		ldr	r0, [r2, #40]
 1121              		.loc 1 859 31 view .LVU370
 1122 0058 FB1A     		subs	r3, r7, r3
 1123              	.LVL125:
 1124              		.loc 1 859 18 view .LVU371
 1125 005a 0344     		add	r3, r3, r0
 1126 005c 9362     		str	r3, [r2, #40]
 860:RTT/SEGGER_RTT.c ****     while (pRing->RdOff >= pRing->SizeOfBuffer) {
 1127              		.loc 1 860 5 is_stmt 1 view .LVU372
 1128              		.loc 1 860 11 is_stmt 0 view .LVU373
 1129 005e 12E0     		b	.L63
 1130              	.LVL126:
 1131              	.L61:
 856:RTT/SEGGER_RTT.c ****   }
 1132              		.loc 1 856 5 is_stmt 1 view .LVU374
 856:RTT/SEGGER_RTT.c ****   }
 1133              		.loc 1 856 18 is_stmt 0 view .LVU375
 1134 0060 00EB4002 		add	r2, r0, r0, lsl #1
 1135 0064 294B     		ldr	r3, .L71
 1136 0066 03EBC202 		add	r2, r3, r2, lsl #3
 1137 006a 936A     		ldr	r3, [r2, #40]
 856:RTT/SEGGER_RTT.c ****   }
 1138              		.loc 1 856 26 view .LVU376
 1139 006c 5B1A     		subs	r3, r3, r1
 856:RTT/SEGGER_RTT.c ****   }
 1140              		.loc 1 856 53 view .LVU377
 1141 006e 126A     		ldr	r2, [r2, #32]
 856:RTT/SEGGER_RTT.c ****   }
 1142              		.loc 1 856 46 view .LVU378
 1143 0070 1344     		add	r3, r3, r2
 856:RTT/SEGGER_RTT.c ****   }
 1144              		.loc 1 856 11 view .LVU379
 1145 0072 013B     		subs	r3, r3, #1
 1146              	.LVL127:
 856:RTT/SEGGER_RTT.c ****   }
 1147              		.loc 1 856 11 view .LVU380
 1148 0074 E8E7     		b	.L60
 1149              	.LVL128:
 1150              	.L64:
ARM GAS  C:\Users\wizar\AppData\Local\Temp\ccRaZdSN.s 			page 40


 861:RTT/SEGGER_RTT.c ****       pRing->RdOff -= pRing->SizeOfBuffer;
 1151              		.loc 1 861 7 is_stmt 1 view .LVU381
 1152              		.loc 1 861 20 is_stmt 0 view .LVU382
 1153 0076 06EB4603 		add	r3, r6, r6, lsl #1
 1154 007a 244A     		ldr	r2, .L71
 1155 007c 02EBC303 		add	r3, r2, r3, lsl #3
 1156 0080 9A6A     		ldr	r2, [r3, #40]
 1157 0082 121A     		subs	r2, r2, r0
 1158 0084 9A62     		str	r2, [r3, #40]
 1159              	.L63:
 860:RTT/SEGGER_RTT.c ****     while (pRing->RdOff >= pRing->SizeOfBuffer) {
 1160              		.loc 1 860 11 is_stmt 1 view .LVU383
 860:RTT/SEGGER_RTT.c ****     while (pRing->RdOff >= pRing->SizeOfBuffer) {
 1161              		.loc 1 860 17 is_stmt 0 view .LVU384
 1162 0086 06EB4603 		add	r3, r6, r6, lsl #1
 1163 008a 204A     		ldr	r2, .L71
 1164 008c 02EBC303 		add	r3, r2, r3, lsl #3
 1165 0090 9A6A     		ldr	r2, [r3, #40]
 860:RTT/SEGGER_RTT.c ****     while (pRing->RdOff >= pRing->SizeOfBuffer) {
 1166              		.loc 1 860 33 view .LVU385
 1167 0092 186A     		ldr	r0, [r3, #32]
 860:RTT/SEGGER_RTT.c ****     while (pRing->RdOff >= pRing->SizeOfBuffer) {
 1168              		.loc 1 860 11 view .LVU386
 1169 0094 8242     		cmp	r2, r0
 1170 0096 EED2     		bcs	.L64
 1171              	.L62:
 862:RTT/SEGGER_RTT.c ****     }
 863:RTT/SEGGER_RTT.c ****   }
 864:RTT/SEGGER_RTT.c ****   //
 865:RTT/SEGGER_RTT.c ****   // Write all data, no need to check the RdOff, but possibly handle multiple wrap-arounds
 866:RTT/SEGGER_RTT.c ****   //
 867:RTT/SEGGER_RTT.c ****   Avail = pRing->SizeOfBuffer - pRing->WrOff;
 1172              		.loc 1 867 3 is_stmt 1 view .LVU387
 1173              		.loc 1 867 16 is_stmt 0 view .LVU388
 1174 0098 06EB4603 		add	r3, r6, r6, lsl #1
 1175 009c 1B4A     		ldr	r2, .L71
 1176 009e 02EBC303 		add	r3, r2, r3, lsl #3
 1177 00a2 1C6A     		ldr	r4, [r3, #32]
 1178              		.loc 1 867 9 view .LVU389
 1179 00a4 641A     		subs	r4, r4, r1
 1180              	.LVL129:
 1181              	.L67:
 868:RTT/SEGGER_RTT.c ****   do {
 1182              		.loc 1 868 3 is_stmt 1 view .LVU390
 869:RTT/SEGGER_RTT.c ****     if (Avail > NumBytes) {
 1183              		.loc 1 869 5 view .LVU391
 1184              		.loc 1 869 8 is_stmt 0 view .LVU392
 1185 00a6 A742     		cmp	r7, r4
 1186 00a8 19D3     		bcc	.L70
 870:RTT/SEGGER_RTT.c ****       //
 871:RTT/SEGGER_RTT.c ****       // Last round
 872:RTT/SEGGER_RTT.c ****       //
 873:RTT/SEGGER_RTT.c ****       pDst = (pRing->pBuffer + pRing->WrOff) + SEGGER_RTT_UNCACHED_OFF;
 874:RTT/SEGGER_RTT.c **** #if SEGGER_RTT_MEMCPY_USE_BYTELOOP
 875:RTT/SEGGER_RTT.c ****       Avail = NumBytes;
 876:RTT/SEGGER_RTT.c ****       while (NumBytes--) {
 877:RTT/SEGGER_RTT.c ****         *pDst++ = *pData++;
ARM GAS  C:\Users\wizar\AppData\Local\Temp\ccRaZdSN.s 			page 41


 878:RTT/SEGGER_RTT.c ****       };
 879:RTT/SEGGER_RTT.c ****       RTT__DMB();                     // Force data write to be complete before writing the <WrOff>
 880:RTT/SEGGER_RTT.c ****       pRing->WrOff += Avail;
 881:RTT/SEGGER_RTT.c **** #else
 882:RTT/SEGGER_RTT.c ****       SEGGER_RTT_MEMCPY((void*)pDst, pData, NumBytes);
 883:RTT/SEGGER_RTT.c ****       RTT__DMB();                     // Force data write to be complete before writing the <WrOff>
 884:RTT/SEGGER_RTT.c ****       pRing->WrOff += NumBytes;
 885:RTT/SEGGER_RTT.c **** #endif
 886:RTT/SEGGER_RTT.c ****       break;
 887:RTT/SEGGER_RTT.c ****     } else {
 888:RTT/SEGGER_RTT.c ****       //
 889:RTT/SEGGER_RTT.c ****       //  Wrap-around necessary, write until wrap-around and reset WrOff
 890:RTT/SEGGER_RTT.c ****       //
 891:RTT/SEGGER_RTT.c ****       pDst = (pRing->pBuffer + pRing->WrOff) + SEGGER_RTT_UNCACHED_OFF;
 1187              		.loc 1 891 7 is_stmt 1 view .LVU393
 1188              		.loc 1 891 20 is_stmt 0 view .LVU394
 1189 00aa 184D     		ldr	r5, .L71
 1190 00ac 731C     		adds	r3, r6, #1
 1191 00ae 03EB4303 		add	r3, r3, r3, lsl #1
 1192 00b2 05EBC303 		add	r3, r5, r3, lsl #3
 1193 00b6 5868     		ldr	r0, [r3, #4]
 1194              		.loc 1 891 37 view .LVU395
 1195 00b8 06EB4603 		add	r3, r6, r6, lsl #1
 1196 00bc 05EBC305 		add	r5, r5, r3, lsl #3
 1197 00c0 6B6A     		ldr	r3, [r5, #36]
 1198              	.LVL130:
 892:RTT/SEGGER_RTT.c **** #if SEGGER_RTT_MEMCPY_USE_BYTELOOP
 893:RTT/SEGGER_RTT.c ****       NumBytes -= Avail;
 894:RTT/SEGGER_RTT.c ****       while (Avail--) {
 895:RTT/SEGGER_RTT.c ****         *pDst++ = *pData++;
 896:RTT/SEGGER_RTT.c ****       };
 897:RTT/SEGGER_RTT.c ****       RTT__DMB();                     // Force data write to be complete before writing the <WrOff>
 898:RTT/SEGGER_RTT.c ****       pRing->WrOff = 0;
 899:RTT/SEGGER_RTT.c **** #else
 900:RTT/SEGGER_RTT.c ****       SEGGER_RTT_MEMCPY((void*)pDst, pData, Avail);
 1199              		.loc 1 900 7 is_stmt 1 view .LVU396
 1200 00c2 2246     		mov	r2, r4
 1201 00c4 4146     		mov	r1, r8
 1202 00c6 1844     		add	r0, r0, r3
 1203              	.LVL131:
 1204              		.loc 1 900 7 is_stmt 0 view .LVU397
 1205 00c8 FFF7FEFF 		bl	memcpy
 1206              	.LVL132:
 901:RTT/SEGGER_RTT.c ****       pData += Avail;
 1207              		.loc 1 901 7 is_stmt 1 view .LVU398
 1208              		.loc 1 901 13 is_stmt 0 view .LVU399
 1209 00cc A044     		add	r8, r8, r4
 1210              	.LVL133:
 902:RTT/SEGGER_RTT.c ****       RTT__DMB();                     // Force data write to be complete before writing the <WrOff>
 1211              		.loc 1 902 17 is_stmt 1 view .LVU400
 903:RTT/SEGGER_RTT.c ****       pRing->WrOff = 0;
 1212              		.loc 1 903 7 view .LVU401
 1213              		.loc 1 903 20 is_stmt 0 view .LVU402
 1214 00ce 0023     		movs	r3, #0
 1215 00d0 6B62     		str	r3, [r5, #36]
 904:RTT/SEGGER_RTT.c ****       NumBytes -= Avail;
 1216              		.loc 1 904 7 is_stmt 1 view .LVU403
ARM GAS  C:\Users\wizar\AppData\Local\Temp\ccRaZdSN.s 			page 42


 1217              		.loc 1 904 16 is_stmt 0 view .LVU404
 1218 00d2 3F1B     		subs	r7, r7, r4
 1219              	.LVL134:
 905:RTT/SEGGER_RTT.c **** #endif
 906:RTT/SEGGER_RTT.c ****       Avail = (pRing->SizeOfBuffer - 1);
 1220              		.loc 1 906 7 is_stmt 1 view .LVU405
 1221              		.loc 1 906 21 is_stmt 0 view .LVU406
 1222 00d4 2C6A     		ldr	r4, [r5, #32]
 1223              	.LVL135:
 1224              		.loc 1 906 13 view .LVU407
 1225 00d6 013C     		subs	r4, r4, #1
 1226              	.LVL136:
 907:RTT/SEGGER_RTT.c ****     }
 908:RTT/SEGGER_RTT.c ****   } while (NumBytes);
 1227              		.loc 1 908 11 is_stmt 1 view .LVU408
 1228              		.loc 1 908 3 is_stmt 0 view .LVU409
 1229 00d8 002F     		cmp	r7, #0
 1230 00da E4D1     		bne	.L67
 1231 00dc 13E0     		b	.L58
 1232              	.L70:
 873:RTT/SEGGER_RTT.c **** #if SEGGER_RTT_MEMCPY_USE_BYTELOOP
 1233              		.loc 1 873 7 is_stmt 1 view .LVU410
 873:RTT/SEGGER_RTT.c **** #if SEGGER_RTT_MEMCPY_USE_BYTELOOP
 1234              		.loc 1 873 20 is_stmt 0 view .LVU411
 1235 00de 0B4C     		ldr	r4, .L71
 1236              	.LVL137:
 873:RTT/SEGGER_RTT.c **** #if SEGGER_RTT_MEMCPY_USE_BYTELOOP
 1237              		.loc 1 873 20 view .LVU412
 1238 00e0 731C     		adds	r3, r6, #1
 1239 00e2 03EB4303 		add	r3, r3, r3, lsl #1
 1240 00e6 04EBC303 		add	r3, r4, r3, lsl #3
 1241 00ea 5868     		ldr	r0, [r3, #4]
 873:RTT/SEGGER_RTT.c **** #if SEGGER_RTT_MEMCPY_USE_BYTELOOP
 1242              		.loc 1 873 37 view .LVU413
 1243 00ec 06EB4605 		add	r5, r6, r6, lsl #1
 1244 00f0 04EBC505 		add	r5, r4, r5, lsl #3
 1245 00f4 6B6A     		ldr	r3, [r5, #36]
 1246              	.LVL138:
 882:RTT/SEGGER_RTT.c ****       RTT__DMB();                     // Force data write to be complete before writing the <WrOff>
 1247              		.loc 1 882 7 is_stmt 1 view .LVU414
 1248 00f6 3A46     		mov	r2, r7
 1249 00f8 4146     		mov	r1, r8
 1250 00fa 1844     		add	r0, r0, r3
 1251              	.LVL139:
 882:RTT/SEGGER_RTT.c ****       RTT__DMB();                     // Force data write to be complete before writing the <WrOff>
 1252              		.loc 1 882 7 is_stmt 0 view .LVU415
 1253 00fc FFF7FEFF 		bl	memcpy
 1254              	.LVL140:
 883:RTT/SEGGER_RTT.c ****       pRing->WrOff += NumBytes;
 1255              		.loc 1 883 17 is_stmt 1 view .LVU416
 884:RTT/SEGGER_RTT.c **** #endif
 1256              		.loc 1 884 7 view .LVU417
 884:RTT/SEGGER_RTT.c **** #endif
 1257              		.loc 1 884 20 is_stmt 0 view .LVU418
 1258 0100 6B6A     		ldr	r3, [r5, #36]
 1259 0102 1F44     		add	r7, r7, r3
 1260              	.LVL141:
ARM GAS  C:\Users\wizar\AppData\Local\Temp\ccRaZdSN.s 			page 43


 884:RTT/SEGGER_RTT.c **** #endif
 1261              		.loc 1 884 20 view .LVU419
 1262 0104 6F62     		str	r7, [r5, #36]
 886:RTT/SEGGER_RTT.c ****     } else {
 1263              		.loc 1 886 7 is_stmt 1 view .LVU420
 1264              	.L58:
 909:RTT/SEGGER_RTT.c **** }
 1265              		.loc 1 909 1 is_stmt 0 view .LVU421
 1266 0106 BDE8F883 		pop	{r3, r4, r5, r6, r7, r8, r9, pc}
 1267              	.LVL142:
 1268              	.L72:
 1269              		.loc 1 909 1 view .LVU422
 1270 010a 00BF     		.align	2
 1271              	.L71:
 1272 010c 00000000 		.word	.LANCHOR1
 1273              		.cfi_endproc
 1274              	.LFE9:
 1276              		.section	.text.SEGGER_RTT_WriteDownBufferNoLock,"ax",%progbits
 1277              		.align	1
 1278              		.global	SEGGER_RTT_WriteDownBufferNoLock
 1279              		.syntax unified
 1280              		.thumb
 1281              		.thumb_func
 1283              	SEGGER_RTT_WriteDownBufferNoLock:
 1284              	.LVL143:
 1285              	.LFB10:
 910:RTT/SEGGER_RTT.c **** 
 911:RTT/SEGGER_RTT.c **** /*********************************************************************
 912:RTT/SEGGER_RTT.c **** *
 913:RTT/SEGGER_RTT.c **** *       SEGGER_RTT_WriteSkipNoLock
 914:RTT/SEGGER_RTT.c **** *
 915:RTT/SEGGER_RTT.c **** *  Function description
 916:RTT/SEGGER_RTT.c **** *    Stores a specified number of characters in SEGGER RTT
 917:RTT/SEGGER_RTT.c **** *    control block which is then read by the host.
 918:RTT/SEGGER_RTT.c **** *    SEGGER_RTT_WriteSkipNoLock does not lock the application and
 919:RTT/SEGGER_RTT.c **** *    skips all data, if the data does not fit into the buffer.
 920:RTT/SEGGER_RTT.c **** *
 921:RTT/SEGGER_RTT.c **** *  Parameters
 922:RTT/SEGGER_RTT.c **** *    BufferIndex  Index of "Up"-buffer to be used (e.g. 0 for "Terminal").
 923:RTT/SEGGER_RTT.c **** *    pBuffer      Pointer to character array. Does not need to point to a \0 terminated string.
 924:RTT/SEGGER_RTT.c **** *    NumBytes     Number of bytes to be stored in the SEGGER RTT control block.
 925:RTT/SEGGER_RTT.c **** *                 MUST be > 0!!!
 926:RTT/SEGGER_RTT.c **** *                 This is done for performance reasons, so no initial check has do be done.
 927:RTT/SEGGER_RTT.c **** *
 928:RTT/SEGGER_RTT.c **** *  Return value
 929:RTT/SEGGER_RTT.c **** *    1: Data has been copied
 930:RTT/SEGGER_RTT.c **** *    0: No space, data has not been copied
 931:RTT/SEGGER_RTT.c **** *
 932:RTT/SEGGER_RTT.c **** *  Notes
 933:RTT/SEGGER_RTT.c **** *    (1) If there is not enough space in the "Up"-buffer, all data is dropped.
 934:RTT/SEGGER_RTT.c **** *    (2) For performance reasons this function does not call Init()
 935:RTT/SEGGER_RTT.c **** *        and may only be called after RTT has been initialized.
 936:RTT/SEGGER_RTT.c **** *        Either by calling SEGGER_RTT_Init() or calling another RTT API function first.
 937:RTT/SEGGER_RTT.c **** */
 938:RTT/SEGGER_RTT.c **** #if (RTT_USE_ASM == 0)
 939:RTT/SEGGER_RTT.c **** unsigned SEGGER_RTT_WriteSkipNoLock(unsigned BufferIndex, const void* pBuffer, unsigned NumBytes) {
 940:RTT/SEGGER_RTT.c ****   const char*           pData;
ARM GAS  C:\Users\wizar\AppData\Local\Temp\ccRaZdSN.s 			page 44


 941:RTT/SEGGER_RTT.c ****   SEGGER_RTT_BUFFER_UP* pRing;
 942:RTT/SEGGER_RTT.c ****   unsigned              Avail;
 943:RTT/SEGGER_RTT.c ****   unsigned              RdOff;
 944:RTT/SEGGER_RTT.c ****   unsigned              WrOff;
 945:RTT/SEGGER_RTT.c ****   unsigned              Rem;
 946:RTT/SEGGER_RTT.c ****   volatile char*        pDst;
 947:RTT/SEGGER_RTT.c ****   //
 948:RTT/SEGGER_RTT.c ****   // Cases:
 949:RTT/SEGGER_RTT.c ****   //   1) RdOff <= WrOff => Space until wrap-around is sufficient
 950:RTT/SEGGER_RTT.c ****   //   2) RdOff <= WrOff => Space after wrap-around needed (copy in 2 chunks)
 951:RTT/SEGGER_RTT.c ****   //   3) RdOff <  WrOff => No space in buf
 952:RTT/SEGGER_RTT.c ****   //   4) RdOff >  WrOff => Space is sufficient
 953:RTT/SEGGER_RTT.c ****   //   5) RdOff >  WrOff => No space in buf
 954:RTT/SEGGER_RTT.c ****   //
 955:RTT/SEGGER_RTT.c ****   // 1) is the most common case for large buffers and assuming that J-Link reads the data fast enou
 956:RTT/SEGGER_RTT.c ****   //
 957:RTT/SEGGER_RTT.c ****   pData = (const char *)pBuffer;
 958:RTT/SEGGER_RTT.c ****   pRing = (SEGGER_RTT_BUFFER_UP*)((char*)&_SEGGER_RTT.aUp[BufferIndex] + SEGGER_RTT_UNCACHED_OFF); 
 959:RTT/SEGGER_RTT.c ****   RdOff = pRing->RdOff;
 960:RTT/SEGGER_RTT.c ****   WrOff = pRing->WrOff;
 961:RTT/SEGGER_RTT.c ****   pDst = (pRing->pBuffer + WrOff) + SEGGER_RTT_UNCACHED_OFF;
 962:RTT/SEGGER_RTT.c ****   if (RdOff <= WrOff) {                                 // Case 1), 2) or 3)
 963:RTT/SEGGER_RTT.c ****     Avail = pRing->SizeOfBuffer - WrOff - 1u;           // Space until wrap-around (assume 1 byte n
 964:RTT/SEGGER_RTT.c ****     if (Avail >= NumBytes) {                            // Case 1)?
 965:RTT/SEGGER_RTT.c ****       memcpy((void*)pDst, pData, NumBytes);
 966:RTT/SEGGER_RTT.c ****       RTT__DMB();                     // Force data write to be complete before writing the <WrOff>
 967:RTT/SEGGER_RTT.c ****       pRing->WrOff = WrOff + NumBytes;
 968:RTT/SEGGER_RTT.c ****       return 1;
 969:RTT/SEGGER_RTT.c ****     }
 970:RTT/SEGGER_RTT.c ****     Avail += RdOff;                                     // Space incl. wrap-around
 971:RTT/SEGGER_RTT.c ****     if (Avail >= NumBytes) {                            // Case 2? => If not, we have case 3) (does
 972:RTT/SEGGER_RTT.c ****       Rem = pRing->SizeOfBuffer - WrOff;                // Space until end of buffer
 973:RTT/SEGGER_RTT.c ****       memcpy((void*)pDst, pData, Rem);                  // Copy 1st chunk
 974:RTT/SEGGER_RTT.c ****       NumBytes -= Rem;
 975:RTT/SEGGER_RTT.c ****       //
 976:RTT/SEGGER_RTT.c ****       // Special case: First check that assumed RdOff == 0 calculated that last element before wrap
 977:RTT/SEGGER_RTT.c ****       // But 2nd check (considering space until wrap-around and until RdOff) revealed that RdOff is
 978:RTT/SEGGER_RTT.c ****       // In this case, we may use a copy straight until buffer end anyway without needing to copy 2
 979:RTT/SEGGER_RTT.c ****       // Therefore, check if 2nd memcpy is necessary at all
 980:RTT/SEGGER_RTT.c ****       //
 981:RTT/SEGGER_RTT.c ****       if (NumBytes) {
 982:RTT/SEGGER_RTT.c ****         pDst = pRing->pBuffer + SEGGER_RTT_UNCACHED_OFF;
 983:RTT/SEGGER_RTT.c ****         memcpy((void*)pDst, pData + Rem, NumBytes);
 984:RTT/SEGGER_RTT.c ****       }
 985:RTT/SEGGER_RTT.c ****       RTT__DMB();                     // Force data write to be complete before writing the <WrOff>
 986:RTT/SEGGER_RTT.c ****       pRing->WrOff = NumBytes;
 987:RTT/SEGGER_RTT.c ****       return 1;
 988:RTT/SEGGER_RTT.c ****     }
 989:RTT/SEGGER_RTT.c ****   } else {                                             // Potential case 4)
 990:RTT/SEGGER_RTT.c ****     Avail = RdOff - WrOff - 1u;
 991:RTT/SEGGER_RTT.c ****     if (Avail >= NumBytes) {                           // Case 4)? => If not, we have case 5) (does
 992:RTT/SEGGER_RTT.c ****       memcpy((void*)pDst, pData, NumBytes);
 993:RTT/SEGGER_RTT.c ****       RTT__DMB();                     // Force data write to be complete before writing the <WrOff>
 994:RTT/SEGGER_RTT.c ****       pRing->WrOff = WrOff + NumBytes;
 995:RTT/SEGGER_RTT.c ****       return 1;
 996:RTT/SEGGER_RTT.c ****     }
 997:RTT/SEGGER_RTT.c ****   }
ARM GAS  C:\Users\wizar\AppData\Local\Temp\ccRaZdSN.s 			page 45


 998:RTT/SEGGER_RTT.c ****   return 0;     // No space in buffer
 999:RTT/SEGGER_RTT.c **** }
1000:RTT/SEGGER_RTT.c **** #endif
1001:RTT/SEGGER_RTT.c **** 
1002:RTT/SEGGER_RTT.c **** /*********************************************************************
1003:RTT/SEGGER_RTT.c **** *
1004:RTT/SEGGER_RTT.c **** *       SEGGER_RTT_WriteDownBufferNoLock
1005:RTT/SEGGER_RTT.c **** *
1006:RTT/SEGGER_RTT.c **** *  Function description
1007:RTT/SEGGER_RTT.c **** *    Stores a specified number of characters in SEGGER RTT
1008:RTT/SEGGER_RTT.c **** *    control block inside a <Down> buffer.
1009:RTT/SEGGER_RTT.c **** *    SEGGER_RTT_WriteDownBufferNoLock does not lock the application.
1010:RTT/SEGGER_RTT.c **** *    Used to do the same operation that J-Link does, to transfer 
1011:RTT/SEGGER_RTT.c **** *    RTT data from other channels, such as TCP/IP or UART.
1012:RTT/SEGGER_RTT.c **** *
1013:RTT/SEGGER_RTT.c **** *  Parameters
1014:RTT/SEGGER_RTT.c **** *    BufferIndex  Index of "Down"-buffer to be used.
1015:RTT/SEGGER_RTT.c **** *    pBuffer      Pointer to character array. Does not need to point to a \0 terminated string.
1016:RTT/SEGGER_RTT.c **** *    NumBytes     Number of bytes to be stored in the SEGGER RTT control block.
1017:RTT/SEGGER_RTT.c **** *
1018:RTT/SEGGER_RTT.c **** *  Return value
1019:RTT/SEGGER_RTT.c **** *    Number of bytes which have been stored in the "Down"-buffer.
1020:RTT/SEGGER_RTT.c **** *
1021:RTT/SEGGER_RTT.c **** *  Notes
1022:RTT/SEGGER_RTT.c **** *    (1) Data is stored according to buffer flags.
1023:RTT/SEGGER_RTT.c **** *    (2) For performance reasons this function does not call Init()
1024:RTT/SEGGER_RTT.c **** *        and may only be called after RTT has been initialized.
1025:RTT/SEGGER_RTT.c **** *        Either by calling SEGGER_RTT_Init() or calling another RTT API function first.
1026:RTT/SEGGER_RTT.c **** *
1027:RTT/SEGGER_RTT.c **** *  Additional information
1028:RTT/SEGGER_RTT.c **** *    This function must not be called when J-Link might also do RTT.
1029:RTT/SEGGER_RTT.c **** */
1030:RTT/SEGGER_RTT.c **** unsigned SEGGER_RTT_WriteDownBufferNoLock(unsigned BufferIndex, const void* pBuffer, unsigned NumBy
 1286              		.loc 1 1030 105 is_stmt 1 view -0
 1287              		.cfi_startproc
 1288              		@ args = 0, pretend = 0, frame = 0
 1289              		@ frame_needed = 0, uses_anonymous_args = 0
 1290              		.loc 1 1030 105 is_stmt 0 view .LVU424
 1291 0000 F8B5     		push	{r3, r4, r5, r6, r7, lr}
 1292              	.LCFI11:
 1293              		.cfi_def_cfa_offset 24
 1294              		.cfi_offset 3, -24
 1295              		.cfi_offset 4, -20
 1296              		.cfi_offset 5, -16
 1297              		.cfi_offset 6, -12
 1298              		.cfi_offset 7, -8
 1299              		.cfi_offset 14, -4
 1300 0002 0E46     		mov	r6, r1
 1301 0004 1546     		mov	r5, r2
1031:RTT/SEGGER_RTT.c ****   unsigned                Status;
 1302              		.loc 1 1031 3 is_stmt 1 view .LVU425
1032:RTT/SEGGER_RTT.c ****   unsigned                Avail;
 1303              		.loc 1 1032 3 view .LVU426
1033:RTT/SEGGER_RTT.c ****   const char*             pData;
 1304              		.loc 1 1033 3 view .LVU427
1034:RTT/SEGGER_RTT.c ****   SEGGER_RTT_BUFFER_UP*   pRing;
 1305              		.loc 1 1034 3 view .LVU428
ARM GAS  C:\Users\wizar\AppData\Local\Temp\ccRaZdSN.s 			page 46


1035:RTT/SEGGER_RTT.c ****   //
1036:RTT/SEGGER_RTT.c ****   // Get "to-target" ring buffer.
1037:RTT/SEGGER_RTT.c ****   // It is save to cast that to a "to-host" buffer. Up and Down buffer differ in volatility of offs
1038:RTT/SEGGER_RTT.c ****   //
1039:RTT/SEGGER_RTT.c ****   pData = (const char *)pBuffer;
 1306              		.loc 1 1039 3 view .LVU429
 1307              	.LVL144:
1040:RTT/SEGGER_RTT.c ****   pRing = (SEGGER_RTT_BUFFER_UP*)((char*)&_SEGGER_RTT.aDown[BufferIndex] + SEGGER_RTT_UNCACHED_OFF)
 1308              		.loc 1 1040 3 view .LVU430
 1309              		.loc 1 1040 9 is_stmt 0 view .LVU431
 1310 0006 00EB4000 		add	r0, r0, r0, lsl #1
 1311              	.LVL145:
 1312              		.loc 1 1040 9 view .LVU432
 1313 000a C000     		lsls	r0, r0, #3
 1314 000c 6030     		adds	r0, r0, #96
 1315 000e 144F     		ldr	r7, .L80
 1316 0010 0744     		add	r7, r7, r0
 1317              	.LVL146:
1041:RTT/SEGGER_RTT.c ****   //
1042:RTT/SEGGER_RTT.c ****   // How we output depends upon the mode...
1043:RTT/SEGGER_RTT.c ****   //
1044:RTT/SEGGER_RTT.c ****   switch (pRing->Flags) {
 1318              		.loc 1 1044 3 is_stmt 1 view .LVU433
 1319              		.loc 1 1044 16 is_stmt 0 view .LVU434
 1320 0012 7C69     		ldr	r4, [r7, #20]
 1321              		.loc 1 1044 3 view .LVU435
 1322 0014 012C     		cmp	r4, #1
 1323 0016 11D0     		beq	.L74
 1324 0018 022C     		cmp	r4, #2
 1325 001a 1CD0     		beq	.L75
 1326 001c 14B1     		cbz	r4, .L79
 1327 001e 0024     		movs	r4, #0
 1328              	.LVL147:
1045:RTT/SEGGER_RTT.c ****   case SEGGER_RTT_MODE_NO_BLOCK_SKIP:
1046:RTT/SEGGER_RTT.c ****     //
1047:RTT/SEGGER_RTT.c ****     // If we are in skip mode and there is no space for the whole
1048:RTT/SEGGER_RTT.c ****     // of this output, don't bother.
1049:RTT/SEGGER_RTT.c ****     //
1050:RTT/SEGGER_RTT.c ****     Avail = _GetAvailWriteSpace(pRing);
1051:RTT/SEGGER_RTT.c ****     if (Avail < NumBytes) {
1052:RTT/SEGGER_RTT.c ****       Status = 0u;
1053:RTT/SEGGER_RTT.c ****     } else {
1054:RTT/SEGGER_RTT.c ****       Status = NumBytes;
1055:RTT/SEGGER_RTT.c ****       _WriteNoCheck(pRing, pData, NumBytes);
1056:RTT/SEGGER_RTT.c ****     }
1057:RTT/SEGGER_RTT.c ****     break;
1058:RTT/SEGGER_RTT.c ****   case SEGGER_RTT_MODE_NO_BLOCK_TRIM:
1059:RTT/SEGGER_RTT.c ****     //
1060:RTT/SEGGER_RTT.c ****     // If we are in trim mode, trim to what we can output without blocking.
1061:RTT/SEGGER_RTT.c ****     //
1062:RTT/SEGGER_RTT.c ****     Avail = _GetAvailWriteSpace(pRing);
1063:RTT/SEGGER_RTT.c ****     Status = Avail < NumBytes ? Avail : NumBytes;
1064:RTT/SEGGER_RTT.c ****     _WriteNoCheck(pRing, pData, Status);
1065:RTT/SEGGER_RTT.c ****     break;
1066:RTT/SEGGER_RTT.c ****   case SEGGER_RTT_MODE_BLOCK_IF_FIFO_FULL:
1067:RTT/SEGGER_RTT.c ****     //
1068:RTT/SEGGER_RTT.c ****     // If we are in blocking mode, output everything.
ARM GAS  C:\Users\wizar\AppData\Local\Temp\ccRaZdSN.s 			page 47


1069:RTT/SEGGER_RTT.c ****     //
1070:RTT/SEGGER_RTT.c ****     Status = _WriteBlocking(pRing, pData, NumBytes);
1071:RTT/SEGGER_RTT.c ****     break;
1072:RTT/SEGGER_RTT.c ****   default:
1073:RTT/SEGGER_RTT.c ****     Status = 0u;
1074:RTT/SEGGER_RTT.c ****     break;
1075:RTT/SEGGER_RTT.c ****   }
1076:RTT/SEGGER_RTT.c ****   //
1077:RTT/SEGGER_RTT.c ****   // Finish up.
1078:RTT/SEGGER_RTT.c ****   //
1079:RTT/SEGGER_RTT.c ****   return Status;
 1329              		.loc 1 1079 3 is_stmt 1 view .LVU436
 1330              	.L73:
1080:RTT/SEGGER_RTT.c **** }
 1331              		.loc 1 1080 1 is_stmt 0 view .LVU437
 1332 0020 2046     		mov	r0, r4
 1333 0022 F8BD     		pop	{r3, r4, r5, r6, r7, pc}
 1334              	.LVL148:
 1335              	.L79:
1050:RTT/SEGGER_RTT.c ****     if (Avail < NumBytes) {
 1336              		.loc 1 1050 5 is_stmt 1 view .LVU438
1050:RTT/SEGGER_RTT.c ****     if (Avail < NumBytes) {
 1337              		.loc 1 1050 13 is_stmt 0 view .LVU439
 1338 0024 3846     		mov	r0, r7
 1339 0026 FFF7FEFF 		bl	_GetAvailWriteSpace
 1340              	.LVL149:
1051:RTT/SEGGER_RTT.c ****       Status = 0u;
 1341              		.loc 1 1051 5 is_stmt 1 view .LVU440
1051:RTT/SEGGER_RTT.c ****       Status = 0u;
 1342              		.loc 1 1051 8 is_stmt 0 view .LVU441
 1343 002a 8542     		cmp	r5, r0
 1344 002c F8D8     		bhi	.L73
1054:RTT/SEGGER_RTT.c ****       _WriteNoCheck(pRing, pData, NumBytes);
 1345              		.loc 1 1054 7 is_stmt 1 view .LVU442
 1346              	.LVL150:
1055:RTT/SEGGER_RTT.c ****     }
 1347              		.loc 1 1055 7 view .LVU443
 1348 002e 2A46     		mov	r2, r5
 1349 0030 3146     		mov	r1, r6
 1350 0032 3846     		mov	r0, r7
 1351              	.LVL151:
1055:RTT/SEGGER_RTT.c ****     }
 1352              		.loc 1 1055 7 is_stmt 0 view .LVU444
 1353 0034 FFF7FEFF 		bl	_WriteNoCheck
 1354              	.LVL152:
1054:RTT/SEGGER_RTT.c ****       _WriteNoCheck(pRing, pData, NumBytes);
 1355              		.loc 1 1054 14 view .LVU445
 1356 0038 2C46     		mov	r4, r5
 1357 003a F1E7     		b	.L73
 1358              	.LVL153:
 1359              	.L74:
1062:RTT/SEGGER_RTT.c ****     Status = Avail < NumBytes ? Avail : NumBytes;
 1360              		.loc 1 1062 5 is_stmt 1 view .LVU446
1062:RTT/SEGGER_RTT.c ****     Status = Avail < NumBytes ? Avail : NumBytes;
 1361              		.loc 1 1062 13 is_stmt 0 view .LVU447
 1362 003c 3846     		mov	r0, r7
 1363 003e FFF7FEFF 		bl	_GetAvailWriteSpace
ARM GAS  C:\Users\wizar\AppData\Local\Temp\ccRaZdSN.s 			page 48


 1364              	.LVL154:
1063:RTT/SEGGER_RTT.c ****     _WriteNoCheck(pRing, pData, Status);
 1365              		.loc 1 1063 5 is_stmt 1 view .LVU448
1063:RTT/SEGGER_RTT.c ****     _WriteNoCheck(pRing, pData, Status);
 1366              		.loc 1 1063 12 is_stmt 0 view .LVU449
 1367 0042 2C46     		mov	r4, r5
 1368 0044 8542     		cmp	r5, r0
 1369 0046 28BF     		it	cs
 1370 0048 0446     		movcs	r4, r0
 1371              	.LVL155:
1064:RTT/SEGGER_RTT.c ****     break;
 1372              		.loc 1 1064 5 is_stmt 1 view .LVU450
 1373 004a 2246     		mov	r2, r4
 1374 004c 3146     		mov	r1, r6
 1375 004e 3846     		mov	r0, r7
 1376              	.LVL156:
1064:RTT/SEGGER_RTT.c ****     break;
 1377              		.loc 1 1064 5 is_stmt 0 view .LVU451
 1378 0050 FFF7FEFF 		bl	_WriteNoCheck
 1379              	.LVL157:
1065:RTT/SEGGER_RTT.c ****   case SEGGER_RTT_MODE_BLOCK_IF_FIFO_FULL:
 1380              		.loc 1 1065 5 is_stmt 1 view .LVU452
 1381 0054 E4E7     		b	.L73
 1382              	.LVL158:
 1383              	.L75:
1070:RTT/SEGGER_RTT.c ****     break;
 1384              		.loc 1 1070 5 view .LVU453
1070:RTT/SEGGER_RTT.c ****     break;
 1385              		.loc 1 1070 14 is_stmt 0 view .LVU454
 1386 0056 3846     		mov	r0, r7
 1387 0058 FFF7FEFF 		bl	_WriteBlocking
 1388              	.LVL159:
1070:RTT/SEGGER_RTT.c ****     break;
 1389              		.loc 1 1070 14 view .LVU455
 1390 005c 0446     		mov	r4, r0
 1391              	.LVL160:
1071:RTT/SEGGER_RTT.c ****   default:
 1392              		.loc 1 1071 5 is_stmt 1 view .LVU456
 1393 005e DFE7     		b	.L73
 1394              	.L81:
 1395              		.align	2
 1396              	.L80:
 1397 0060 00000000 		.word	.LANCHOR1
 1398              		.cfi_endproc
 1399              	.LFE10:
 1401              		.section	.text.SEGGER_RTT_WriteNoLock,"ax",%progbits
 1402              		.align	1
 1403              		.global	SEGGER_RTT_WriteNoLock
 1404              		.syntax unified
 1405              		.thumb
 1406              		.thumb_func
 1408              	SEGGER_RTT_WriteNoLock:
 1409              	.LVL161:
 1410              	.LFB11:
1081:RTT/SEGGER_RTT.c **** 
1082:RTT/SEGGER_RTT.c **** /*********************************************************************
1083:RTT/SEGGER_RTT.c **** *
ARM GAS  C:\Users\wizar\AppData\Local\Temp\ccRaZdSN.s 			page 49


1084:RTT/SEGGER_RTT.c **** *       SEGGER_RTT_WriteNoLock
1085:RTT/SEGGER_RTT.c **** *
1086:RTT/SEGGER_RTT.c **** *  Function description
1087:RTT/SEGGER_RTT.c **** *    Stores a specified number of characters in SEGGER RTT
1088:RTT/SEGGER_RTT.c **** *    control block which is then read by the host.
1089:RTT/SEGGER_RTT.c **** *    SEGGER_RTT_WriteNoLock does not lock the application.
1090:RTT/SEGGER_RTT.c **** *
1091:RTT/SEGGER_RTT.c **** *  Parameters
1092:RTT/SEGGER_RTT.c **** *    BufferIndex  Index of "Up"-buffer to be used (e.g. 0 for "Terminal").
1093:RTT/SEGGER_RTT.c **** *    pBuffer      Pointer to character array. Does not need to point to a \0 terminated string.
1094:RTT/SEGGER_RTT.c **** *    NumBytes     Number of bytes to be stored in the SEGGER RTT control block.
1095:RTT/SEGGER_RTT.c **** *
1096:RTT/SEGGER_RTT.c **** *  Return value
1097:RTT/SEGGER_RTT.c **** *    Number of bytes which have been stored in the "Up"-buffer.
1098:RTT/SEGGER_RTT.c **** *
1099:RTT/SEGGER_RTT.c **** *  Notes
1100:RTT/SEGGER_RTT.c **** *    (1) Data is stored according to buffer flags.
1101:RTT/SEGGER_RTT.c **** *    (2) For performance reasons this function does not call Init()
1102:RTT/SEGGER_RTT.c **** *        and may only be called after RTT has been initialized.
1103:RTT/SEGGER_RTT.c **** *        Either by calling SEGGER_RTT_Init() or calling another RTT API function first.
1104:RTT/SEGGER_RTT.c **** */
1105:RTT/SEGGER_RTT.c **** unsigned SEGGER_RTT_WriteNoLock(unsigned BufferIndex, const void* pBuffer, unsigned NumBytes) {
 1411              		.loc 1 1105 95 view -0
 1412              		.cfi_startproc
 1413              		@ args = 0, pretend = 0, frame = 0
 1414              		@ frame_needed = 0, uses_anonymous_args = 0
 1415              		.loc 1 1105 95 is_stmt 0 view .LVU458
 1416 0000 F8B5     		push	{r3, r4, r5, r6, r7, lr}
 1417              	.LCFI12:
 1418              		.cfi_def_cfa_offset 24
 1419              		.cfi_offset 3, -24
 1420              		.cfi_offset 4, -20
 1421              		.cfi_offset 5, -16
 1422              		.cfi_offset 6, -12
 1423              		.cfi_offset 7, -8
 1424              		.cfi_offset 14, -4
 1425 0002 0F46     		mov	r7, r1
 1426 0004 1646     		mov	r6, r2
1106:RTT/SEGGER_RTT.c ****   unsigned              Status;
 1427              		.loc 1 1106 3 is_stmt 1 view .LVU459
1107:RTT/SEGGER_RTT.c ****   unsigned              Avail;
 1428              		.loc 1 1107 3 view .LVU460
1108:RTT/SEGGER_RTT.c ****   const char*           pData;
 1429              		.loc 1 1108 3 view .LVU461
1109:RTT/SEGGER_RTT.c ****   SEGGER_RTT_BUFFER_UP* pRing;
 1430              		.loc 1 1109 3 view .LVU462
1110:RTT/SEGGER_RTT.c ****   //
1111:RTT/SEGGER_RTT.c ****   // Get "to-host" ring buffer.
1112:RTT/SEGGER_RTT.c ****   //
1113:RTT/SEGGER_RTT.c ****   pData = (const char *)pBuffer;
 1431              		.loc 1 1113 3 view .LVU463
 1432              	.LVL162:
1114:RTT/SEGGER_RTT.c ****   pRing = (SEGGER_RTT_BUFFER_UP*)((char*)&_SEGGER_RTT.aUp[BufferIndex] + SEGGER_RTT_UNCACHED_OFF); 
 1433              		.loc 1 1114 3 view .LVU464
 1434              		.loc 1 1114 9 is_stmt 0 view .LVU465
 1435 0006 184B     		ldr	r3, .L89
 1436 0008 451C     		adds	r5, r0, #1
ARM GAS  C:\Users\wizar\AppData\Local\Temp\ccRaZdSN.s 			page 50


 1437 000a 05EB4505 		add	r5, r5, r5, lsl #1
 1438 000e 03EBC505 		add	r5, r3, r5, lsl #3
 1439              	.LVL163:
1115:RTT/SEGGER_RTT.c ****   //
1116:RTT/SEGGER_RTT.c ****   // How we output depends upon the mode...
1117:RTT/SEGGER_RTT.c ****   //
1118:RTT/SEGGER_RTT.c ****   switch (pRing->Flags) {
 1440              		.loc 1 1118 3 is_stmt 1 view .LVU466
 1441              		.loc 1 1118 16 is_stmt 0 view .LVU467
 1442 0012 00EB4000 		add	r0, r0, r0, lsl #1
 1443              	.LVL164:
 1444              		.loc 1 1118 16 view .LVU468
 1445 0016 03EBC000 		add	r0, r3, r0, lsl #3
 1446 001a C46A     		ldr	r4, [r0, #44]
 1447              		.loc 1 1118 3 view .LVU469
 1448 001c 012C     		cmp	r4, #1
 1449 001e 11D0     		beq	.L83
 1450 0020 022C     		cmp	r4, #2
 1451 0022 1CD0     		beq	.L84
 1452 0024 14B1     		cbz	r4, .L88
 1453 0026 0024     		movs	r4, #0
 1454              	.LVL165:
1119:RTT/SEGGER_RTT.c ****   case SEGGER_RTT_MODE_NO_BLOCK_SKIP:
1120:RTT/SEGGER_RTT.c ****     //
1121:RTT/SEGGER_RTT.c ****     // If we are in skip mode and there is no space for the whole
1122:RTT/SEGGER_RTT.c ****     // of this output, don't bother.
1123:RTT/SEGGER_RTT.c ****     //
1124:RTT/SEGGER_RTT.c ****     Avail = _GetAvailWriteSpace(pRing);
1125:RTT/SEGGER_RTT.c ****     if (Avail < NumBytes) {
1126:RTT/SEGGER_RTT.c ****       Status = 0u;
1127:RTT/SEGGER_RTT.c ****     } else {
1128:RTT/SEGGER_RTT.c ****       Status = NumBytes;
1129:RTT/SEGGER_RTT.c ****       _WriteNoCheck(pRing, pData, NumBytes);
1130:RTT/SEGGER_RTT.c ****     }
1131:RTT/SEGGER_RTT.c ****     break;
1132:RTT/SEGGER_RTT.c ****   case SEGGER_RTT_MODE_NO_BLOCK_TRIM:
1133:RTT/SEGGER_RTT.c ****     //
1134:RTT/SEGGER_RTT.c ****     // If we are in trim mode, trim to what we can output without blocking.
1135:RTT/SEGGER_RTT.c ****     //
1136:RTT/SEGGER_RTT.c ****     Avail = _GetAvailWriteSpace(pRing);
1137:RTT/SEGGER_RTT.c ****     Status = Avail < NumBytes ? Avail : NumBytes;
1138:RTT/SEGGER_RTT.c ****     _WriteNoCheck(pRing, pData, Status);
1139:RTT/SEGGER_RTT.c ****     break;
1140:RTT/SEGGER_RTT.c ****   case SEGGER_RTT_MODE_BLOCK_IF_FIFO_FULL:
1141:RTT/SEGGER_RTT.c ****     //
1142:RTT/SEGGER_RTT.c ****     // If we are in blocking mode, output everything.
1143:RTT/SEGGER_RTT.c ****     //
1144:RTT/SEGGER_RTT.c ****     Status = _WriteBlocking(pRing, pData, NumBytes);
1145:RTT/SEGGER_RTT.c ****     break;
1146:RTT/SEGGER_RTT.c ****   default:
1147:RTT/SEGGER_RTT.c ****     Status = 0u;
1148:RTT/SEGGER_RTT.c ****     break;
1149:RTT/SEGGER_RTT.c ****   }
1150:RTT/SEGGER_RTT.c ****   //
1151:RTT/SEGGER_RTT.c ****   // Finish up.
1152:RTT/SEGGER_RTT.c ****   //
1153:RTT/SEGGER_RTT.c ****   return Status;
ARM GAS  C:\Users\wizar\AppData\Local\Temp\ccRaZdSN.s 			page 51


 1455              		.loc 1 1153 3 is_stmt 1 view .LVU470
 1456              	.L82:
1154:RTT/SEGGER_RTT.c **** }
 1457              		.loc 1 1154 1 is_stmt 0 view .LVU471
 1458 0028 2046     		mov	r0, r4
 1459 002a F8BD     		pop	{r3, r4, r5, r6, r7, pc}
 1460              	.LVL166:
 1461              	.L88:
1124:RTT/SEGGER_RTT.c ****     if (Avail < NumBytes) {
 1462              		.loc 1 1124 5 is_stmt 1 view .LVU472
1124:RTT/SEGGER_RTT.c ****     if (Avail < NumBytes) {
 1463              		.loc 1 1124 13 is_stmt 0 view .LVU473
 1464 002c 2846     		mov	r0, r5
 1465 002e FFF7FEFF 		bl	_GetAvailWriteSpace
 1466              	.LVL167:
1125:RTT/SEGGER_RTT.c ****       Status = 0u;
 1467              		.loc 1 1125 5 is_stmt 1 view .LVU474
1125:RTT/SEGGER_RTT.c ****       Status = 0u;
 1468              		.loc 1 1125 8 is_stmt 0 view .LVU475
 1469 0032 8642     		cmp	r6, r0
 1470 0034 F8D8     		bhi	.L82
1128:RTT/SEGGER_RTT.c ****       _WriteNoCheck(pRing, pData, NumBytes);
 1471              		.loc 1 1128 7 is_stmt 1 view .LVU476
 1472              	.LVL168:
1129:RTT/SEGGER_RTT.c ****     }
 1473              		.loc 1 1129 7 view .LVU477
 1474 0036 3246     		mov	r2, r6
 1475 0038 3946     		mov	r1, r7
 1476 003a 2846     		mov	r0, r5
 1477              	.LVL169:
1129:RTT/SEGGER_RTT.c ****     }
 1478              		.loc 1 1129 7 is_stmt 0 view .LVU478
 1479 003c FFF7FEFF 		bl	_WriteNoCheck
 1480              	.LVL170:
1128:RTT/SEGGER_RTT.c ****       _WriteNoCheck(pRing, pData, NumBytes);
 1481              		.loc 1 1128 14 view .LVU479
 1482 0040 3446     		mov	r4, r6
 1483 0042 F1E7     		b	.L82
 1484              	.LVL171:
 1485              	.L83:
1136:RTT/SEGGER_RTT.c ****     Status = Avail < NumBytes ? Avail : NumBytes;
 1486              		.loc 1 1136 5 is_stmt 1 view .LVU480
1136:RTT/SEGGER_RTT.c ****     Status = Avail < NumBytes ? Avail : NumBytes;
 1487              		.loc 1 1136 13 is_stmt 0 view .LVU481
 1488 0044 2846     		mov	r0, r5
 1489 0046 FFF7FEFF 		bl	_GetAvailWriteSpace
 1490              	.LVL172:
1137:RTT/SEGGER_RTT.c ****     _WriteNoCheck(pRing, pData, Status);
 1491              		.loc 1 1137 5 is_stmt 1 view .LVU482
1137:RTT/SEGGER_RTT.c ****     _WriteNoCheck(pRing, pData, Status);
 1492              		.loc 1 1137 12 is_stmt 0 view .LVU483
 1493 004a 3446     		mov	r4, r6
 1494 004c 8642     		cmp	r6, r0
 1495 004e 28BF     		it	cs
 1496 0050 0446     		movcs	r4, r0
 1497              	.LVL173:
1138:RTT/SEGGER_RTT.c ****     break;
ARM GAS  C:\Users\wizar\AppData\Local\Temp\ccRaZdSN.s 			page 52


 1498              		.loc 1 1138 5 is_stmt 1 view .LVU484
 1499 0052 2246     		mov	r2, r4
 1500 0054 3946     		mov	r1, r7
 1501 0056 2846     		mov	r0, r5
 1502              	.LVL174:
1138:RTT/SEGGER_RTT.c ****     break;
 1503              		.loc 1 1138 5 is_stmt 0 view .LVU485
 1504 0058 FFF7FEFF 		bl	_WriteNoCheck
 1505              	.LVL175:
1139:RTT/SEGGER_RTT.c ****   case SEGGER_RTT_MODE_BLOCK_IF_FIFO_FULL:
 1506              		.loc 1 1139 5 is_stmt 1 view .LVU486
 1507 005c E4E7     		b	.L82
 1508              	.LVL176:
 1509              	.L84:
1144:RTT/SEGGER_RTT.c ****     break;
 1510              		.loc 1 1144 5 view .LVU487
1144:RTT/SEGGER_RTT.c ****     break;
 1511              		.loc 1 1144 14 is_stmt 0 view .LVU488
 1512 005e 2846     		mov	r0, r5
 1513 0060 FFF7FEFF 		bl	_WriteBlocking
 1514              	.LVL177:
1144:RTT/SEGGER_RTT.c ****     break;
 1515              		.loc 1 1144 14 view .LVU489
 1516 0064 0446     		mov	r4, r0
 1517              	.LVL178:
1145:RTT/SEGGER_RTT.c ****   default:
 1518              		.loc 1 1145 5 is_stmt 1 view .LVU490
 1519 0066 DFE7     		b	.L82
 1520              	.L90:
 1521              		.align	2
 1522              	.L89:
 1523 0068 00000000 		.word	.LANCHOR1
 1524              		.cfi_endproc
 1525              	.LFE11:
 1527              		.section	.text.SEGGER_RTT_WriteDownBuffer,"ax",%progbits
 1528              		.align	1
 1529              		.global	SEGGER_RTT_WriteDownBuffer
 1530              		.syntax unified
 1531              		.thumb
 1532              		.thumb_func
 1534              	SEGGER_RTT_WriteDownBuffer:
 1535              	.LVL179:
 1536              	.LFB12:
1155:RTT/SEGGER_RTT.c **** 
1156:RTT/SEGGER_RTT.c **** /*********************************************************************
1157:RTT/SEGGER_RTT.c **** *
1158:RTT/SEGGER_RTT.c **** *       SEGGER_RTT_WriteDownBuffer
1159:RTT/SEGGER_RTT.c **** *
1160:RTT/SEGGER_RTT.c **** *  Function description
1161:RTT/SEGGER_RTT.c **** *    Stores a specified number of characters in SEGGER RTT control block in a <Down> buffer.
1162:RTT/SEGGER_RTT.c **** *
1163:RTT/SEGGER_RTT.c **** *  Parameters
1164:RTT/SEGGER_RTT.c **** *    BufferIndex  Index of "Up"-buffer to be used (e.g. 0 for "Terminal").
1165:RTT/SEGGER_RTT.c **** *    pBuffer      Pointer to character array. Does not need to point to a \0 terminated string.
1166:RTT/SEGGER_RTT.c **** *    NumBytes     Number of bytes to be stored in the SEGGER RTT control block.
1167:RTT/SEGGER_RTT.c **** *
1168:RTT/SEGGER_RTT.c **** *  Return value
ARM GAS  C:\Users\wizar\AppData\Local\Temp\ccRaZdSN.s 			page 53


1169:RTT/SEGGER_RTT.c **** *    Number of bytes which have been stored in the "Down"-buffer.
1170:RTT/SEGGER_RTT.c **** *
1171:RTT/SEGGER_RTT.c **** *  Notes
1172:RTT/SEGGER_RTT.c **** *    (1) Data is stored according to buffer flags.
1173:RTT/SEGGER_RTT.c **** *
1174:RTT/SEGGER_RTT.c **** *  Additional information
1175:RTT/SEGGER_RTT.c **** *    This function must not be called when J-Link might also do RTT.
1176:RTT/SEGGER_RTT.c **** *    This function locks against all other RTT operations. I.e. during
1177:RTT/SEGGER_RTT.c **** *    the write operation, writing from the application is also locked.
1178:RTT/SEGGER_RTT.c **** *    If only one consumer writes to the down buffer, 
1179:RTT/SEGGER_RTT.c **** *    call SEGGER_RTT_WriteDownBufferNoLock() instead.
1180:RTT/SEGGER_RTT.c **** */
1181:RTT/SEGGER_RTT.c **** unsigned SEGGER_RTT_WriteDownBuffer(unsigned BufferIndex, const void* pBuffer, unsigned NumBytes) {
 1537              		.loc 1 1181 99 view -0
 1538              		.cfi_startproc
 1539              		@ args = 0, pretend = 0, frame = 0
 1540              		@ frame_needed = 0, uses_anonymous_args = 0
 1541              		.loc 1 1181 99 is_stmt 0 view .LVU492
 1542 0000 F8B5     		push	{r3, r4, r5, r6, r7, lr}
 1543              	.LCFI13:
 1544              		.cfi_def_cfa_offset 24
 1545              		.cfi_offset 3, -24
 1546              		.cfi_offset 4, -20
 1547              		.cfi_offset 5, -16
 1548              		.cfi_offset 6, -12
 1549              		.cfi_offset 7, -8
 1550              		.cfi_offset 14, -4
 1551 0002 0446     		mov	r4, r0
 1552 0004 0D46     		mov	r5, r1
 1553 0006 1646     		mov	r6, r2
1182:RTT/SEGGER_RTT.c ****   unsigned Status;
 1554              		.loc 1 1182 3 is_stmt 1 view .LVU493
 1555              	.LBB8:
1183:RTT/SEGGER_RTT.c **** 
1184:RTT/SEGGER_RTT.c ****   INIT();
 1556              		.loc 1 1184 3 view .LVU494
 1557              		.loc 1 1184 3 view .LVU495
 1558              	.LVL180:
 1559              		.loc 1 1184 3 view .LVU496
 1560              		.loc 1 1184 3 view .LVU497
 1561 0008 094B     		ldr	r3, .L95
 1562 000a 1B78     		ldrb	r3, [r3]	@ zero_extendqisi2
 1563 000c 6BB1     		cbz	r3, .L94
 1564              	.LVL181:
 1565              	.L92:
 1566              		.loc 1 1184 3 discriminator 3 view .LVU498
 1567              	.LBE8:
 1568              		.loc 1 1184 9 discriminator 3 view .LVU499
 1569              	.LBB9:
1185:RTT/SEGGER_RTT.c ****   SEGGER_RTT_LOCK();
 1570              		.loc 1 1185 3 discriminator 3 view .LVU500
 1571              		.loc 1 1185 3 discriminator 3 view .LVU501
 1572              		.syntax unified
 1573              	@ 1185 "RTT/SEGGER_RTT.c" 1
 1574 000e EFF31187 		mrs   r7, basepri  
 1575 0012 4FF02001 		mov   r1, #32       
 1576 0016 81F31188 		msr   basepri, r1  
ARM GAS  C:\Users\wizar\AppData\Local\Temp\ccRaZdSN.s 			page 54


 1577              		
 1578              	@ 0 "" 2
 1579              	.LVL182:
 1580              		.loc 1 1185 20 discriminator 3 view .LVU502
1186:RTT/SEGGER_RTT.c ****   Status = SEGGER_RTT_WriteDownBufferNoLock(BufferIndex, pBuffer, NumBytes);  // Call the non-locki
 1581              		.loc 1 1186 3 discriminator 3 view .LVU503
 1582              		.loc 1 1186 12 is_stmt 0 discriminator 3 view .LVU504
 1583              		.thumb
 1584              		.syntax unified
 1585 001a 3246     		mov	r2, r6
 1586 001c 2946     		mov	r1, r5
 1587 001e 2046     		mov	r0, r4
 1588 0020 FFF7FEFF 		bl	SEGGER_RTT_WriteDownBufferNoLock
 1589              	.LVL183:
1187:RTT/SEGGER_RTT.c ****   SEGGER_RTT_UNLOCK();
 1590              		.loc 1 1187 3 is_stmt 1 discriminator 3 view .LVU505
 1591              		.syntax unified
 1592              	@ 1187 "RTT/SEGGER_RTT.c" 1
 1593 0024 87F31188 		msr   basepri, r7  
 1594              		
 1595              	@ 0 "" 2
 1596              		.thumb
 1597              		.syntax unified
 1598              	.LBE9:
 1599              		.loc 1 1187 22 discriminator 3 view .LVU506
1188:RTT/SEGGER_RTT.c ****   return Status;
 1600              		.loc 1 1188 3 discriminator 3 view .LVU507
1189:RTT/SEGGER_RTT.c **** }
 1601              		.loc 1 1189 1 is_stmt 0 discriminator 3 view .LVU508
 1602 0028 F8BD     		pop	{r3, r4, r5, r6, r7, pc}
 1603              	.LVL184:
 1604              	.L94:
 1605              	.LBB10:
1184:RTT/SEGGER_RTT.c ****   SEGGER_RTT_LOCK();
 1606              		.loc 1 1184 3 is_stmt 1 discriminator 1 view .LVU509
 1607 002a FFF7FEFF 		bl	_DoInit
 1608              	.LVL185:
1184:RTT/SEGGER_RTT.c ****   SEGGER_RTT_LOCK();
 1609              		.loc 1 1184 3 is_stmt 0 discriminator 1 view .LVU510
 1610 002e EEE7     		b	.L92
 1611              	.L96:
 1612              		.align	2
 1613              	.L95:
 1614 0030 00000000 		.word	.LANCHOR1
 1615              	.LBE10:
 1616              		.cfi_endproc
 1617              	.LFE12:
 1619              		.section	.text.SEGGER_RTT_Write,"ax",%progbits
 1620              		.align	1
 1621              		.global	SEGGER_RTT_Write
 1622              		.syntax unified
 1623              		.thumb
 1624              		.thumb_func
 1626              	SEGGER_RTT_Write:
 1627              	.LVL186:
 1628              	.LFB13:
1190:RTT/SEGGER_RTT.c **** 
ARM GAS  C:\Users\wizar\AppData\Local\Temp\ccRaZdSN.s 			page 55


1191:RTT/SEGGER_RTT.c **** /*********************************************************************
1192:RTT/SEGGER_RTT.c **** *
1193:RTT/SEGGER_RTT.c **** *       SEGGER_RTT_Write
1194:RTT/SEGGER_RTT.c **** *
1195:RTT/SEGGER_RTT.c **** *  Function description
1196:RTT/SEGGER_RTT.c **** *    Stores a specified number of characters in SEGGER RTT
1197:RTT/SEGGER_RTT.c **** *    control block which is then read by the host.
1198:RTT/SEGGER_RTT.c **** *
1199:RTT/SEGGER_RTT.c **** *  Parameters
1200:RTT/SEGGER_RTT.c **** *    BufferIndex  Index of "Up"-buffer to be used (e.g. 0 for "Terminal").
1201:RTT/SEGGER_RTT.c **** *    pBuffer      Pointer to character array. Does not need to point to a \0 terminated string.
1202:RTT/SEGGER_RTT.c **** *    NumBytes     Number of bytes to be stored in the SEGGER RTT control block.
1203:RTT/SEGGER_RTT.c **** *
1204:RTT/SEGGER_RTT.c **** *  Return value
1205:RTT/SEGGER_RTT.c **** *    Number of bytes which have been stored in the "Up"-buffer.
1206:RTT/SEGGER_RTT.c **** *
1207:RTT/SEGGER_RTT.c **** *  Notes
1208:RTT/SEGGER_RTT.c **** *    (1) Data is stored according to buffer flags.
1209:RTT/SEGGER_RTT.c **** */
1210:RTT/SEGGER_RTT.c **** unsigned SEGGER_RTT_Write(unsigned BufferIndex, const void* pBuffer, unsigned NumBytes) {
 1629              		.loc 1 1210 89 is_stmt 1 view -0
 1630              		.cfi_startproc
 1631              		@ args = 0, pretend = 0, frame = 0
 1632              		@ frame_needed = 0, uses_anonymous_args = 0
 1633              		.loc 1 1210 89 is_stmt 0 view .LVU512
 1634 0000 F8B5     		push	{r3, r4, r5, r6, r7, lr}
 1635              	.LCFI14:
 1636              		.cfi_def_cfa_offset 24
 1637              		.cfi_offset 3, -24
 1638              		.cfi_offset 4, -20
 1639              		.cfi_offset 5, -16
 1640              		.cfi_offset 6, -12
 1641              		.cfi_offset 7, -8
 1642              		.cfi_offset 14, -4
 1643 0002 0446     		mov	r4, r0
 1644 0004 0D46     		mov	r5, r1
 1645 0006 1646     		mov	r6, r2
1211:RTT/SEGGER_RTT.c ****   unsigned Status;
 1646              		.loc 1 1211 3 is_stmt 1 view .LVU513
 1647              	.LBB11:
1212:RTT/SEGGER_RTT.c **** 
1213:RTT/SEGGER_RTT.c ****   INIT();
 1648              		.loc 1 1213 3 view .LVU514
 1649              		.loc 1 1213 3 view .LVU515
 1650              	.LVL187:
 1651              		.loc 1 1213 3 view .LVU516
 1652              		.loc 1 1213 3 view .LVU517
 1653 0008 094B     		ldr	r3, .L101
 1654 000a 1B78     		ldrb	r3, [r3]	@ zero_extendqisi2
 1655 000c 6BB1     		cbz	r3, .L100
 1656              	.LVL188:
 1657              	.L98:
 1658              		.loc 1 1213 3 discriminator 3 view .LVU518
 1659              	.LBE11:
 1660              		.loc 1 1213 9 discriminator 3 view .LVU519
 1661              	.LBB12:
1214:RTT/SEGGER_RTT.c ****   SEGGER_RTT_LOCK();
ARM GAS  C:\Users\wizar\AppData\Local\Temp\ccRaZdSN.s 			page 56


 1662              		.loc 1 1214 3 discriminator 3 view .LVU520
 1663              		.loc 1 1214 3 discriminator 3 view .LVU521
 1664              		.syntax unified
 1665              	@ 1214 "RTT/SEGGER_RTT.c" 1
 1666 000e EFF31187 		mrs   r7, basepri  
 1667 0012 4FF02001 		mov   r1, #32       
 1668 0016 81F31188 		msr   basepri, r1  
 1669              		
 1670              	@ 0 "" 2
 1671              	.LVL189:
 1672              		.loc 1 1214 20 discriminator 3 view .LVU522
1215:RTT/SEGGER_RTT.c ****   Status = SEGGER_RTT_WriteNoLock(BufferIndex, pBuffer, NumBytes);  // Call the non-locking write f
 1673              		.loc 1 1215 3 discriminator 3 view .LVU523
 1674              		.loc 1 1215 12 is_stmt 0 discriminator 3 view .LVU524
 1675              		.thumb
 1676              		.syntax unified
 1677 001a 3246     		mov	r2, r6
 1678 001c 2946     		mov	r1, r5
 1679 001e 2046     		mov	r0, r4
 1680 0020 FFF7FEFF 		bl	SEGGER_RTT_WriteNoLock
 1681              	.LVL190:
1216:RTT/SEGGER_RTT.c ****   SEGGER_RTT_UNLOCK();
 1682              		.loc 1 1216 3 is_stmt 1 discriminator 3 view .LVU525
 1683              		.syntax unified
 1684              	@ 1216 "RTT/SEGGER_RTT.c" 1
 1685 0024 87F31188 		msr   basepri, r7  
 1686              		
 1687              	@ 0 "" 2
 1688              		.thumb
 1689              		.syntax unified
 1690              	.LBE12:
 1691              		.loc 1 1216 22 discriminator 3 view .LVU526
1217:RTT/SEGGER_RTT.c ****   return Status;
 1692              		.loc 1 1217 3 discriminator 3 view .LVU527
1218:RTT/SEGGER_RTT.c **** }
 1693              		.loc 1 1218 1 is_stmt 0 discriminator 3 view .LVU528
 1694 0028 F8BD     		pop	{r3, r4, r5, r6, r7, pc}
 1695              	.LVL191:
 1696              	.L100:
 1697              	.LBB13:
1213:RTT/SEGGER_RTT.c ****   SEGGER_RTT_LOCK();
 1698              		.loc 1 1213 3 is_stmt 1 discriminator 1 view .LVU529
 1699 002a FFF7FEFF 		bl	_DoInit
 1700              	.LVL192:
1213:RTT/SEGGER_RTT.c ****   SEGGER_RTT_LOCK();
 1701              		.loc 1 1213 3 is_stmt 0 discriminator 1 view .LVU530
 1702 002e EEE7     		b	.L98
 1703              	.L102:
 1704              		.align	2
 1705              	.L101:
 1706 0030 00000000 		.word	.LANCHOR1
 1707              	.LBE13:
 1708              		.cfi_endproc
 1709              	.LFE13:
 1711              		.section	.text.SEGGER_RTT_WriteString,"ax",%progbits
 1712              		.align	1
 1713              		.global	SEGGER_RTT_WriteString
ARM GAS  C:\Users\wizar\AppData\Local\Temp\ccRaZdSN.s 			page 57


 1714              		.syntax unified
 1715              		.thumb
 1716              		.thumb_func
 1718              	SEGGER_RTT_WriteString:
 1719              	.LVL193:
 1720              	.LFB14:
1219:RTT/SEGGER_RTT.c **** 
1220:RTT/SEGGER_RTT.c **** /*********************************************************************
1221:RTT/SEGGER_RTT.c **** *
1222:RTT/SEGGER_RTT.c **** *       SEGGER_RTT_WriteString
1223:RTT/SEGGER_RTT.c **** *
1224:RTT/SEGGER_RTT.c **** *  Function description
1225:RTT/SEGGER_RTT.c **** *    Stores string in SEGGER RTT control block.
1226:RTT/SEGGER_RTT.c **** *    This data is read by the host.
1227:RTT/SEGGER_RTT.c **** *
1228:RTT/SEGGER_RTT.c **** *  Parameters
1229:RTT/SEGGER_RTT.c **** *    BufferIndex  Index of "Up"-buffer to be used (e.g. 0 for "Terminal").
1230:RTT/SEGGER_RTT.c **** *    s            Pointer to string.
1231:RTT/SEGGER_RTT.c **** *
1232:RTT/SEGGER_RTT.c **** *  Return value
1233:RTT/SEGGER_RTT.c **** *    Number of bytes which have been stored in the "Up"-buffer.
1234:RTT/SEGGER_RTT.c **** *
1235:RTT/SEGGER_RTT.c **** *  Notes
1236:RTT/SEGGER_RTT.c **** *    (1) Data is stored according to buffer flags.
1237:RTT/SEGGER_RTT.c **** *    (2) String passed to this function has to be \0 terminated
1238:RTT/SEGGER_RTT.c **** *    (3) \0 termination character is *not* stored in RTT buffer
1239:RTT/SEGGER_RTT.c **** */
1240:RTT/SEGGER_RTT.c **** unsigned SEGGER_RTT_WriteString(unsigned BufferIndex, const char* s) {
 1721              		.loc 1 1240 70 is_stmt 1 view -0
 1722              		.cfi_startproc
 1723              		@ args = 0, pretend = 0, frame = 0
 1724              		@ frame_needed = 0, uses_anonymous_args = 0
 1725              		.loc 1 1240 70 is_stmt 0 view .LVU532
 1726 0000 38B5     		push	{r3, r4, r5, lr}
 1727              	.LCFI15:
 1728              		.cfi_def_cfa_offset 16
 1729              		.cfi_offset 3, -16
 1730              		.cfi_offset 4, -12
 1731              		.cfi_offset 5, -8
 1732              		.cfi_offset 14, -4
 1733 0002 0546     		mov	r5, r0
 1734 0004 0C46     		mov	r4, r1
1241:RTT/SEGGER_RTT.c ****   unsigned Len;
 1735              		.loc 1 1241 3 is_stmt 1 view .LVU533
1242:RTT/SEGGER_RTT.c **** 
1243:RTT/SEGGER_RTT.c ****   Len = STRLEN(s);
 1736              		.loc 1 1243 3 view .LVU534
 1737              		.loc 1 1243 9 is_stmt 0 view .LVU535
 1738 0006 0846     		mov	r0, r1
 1739              	.LVL194:
 1740              		.loc 1 1243 9 view .LVU536
 1741 0008 FFF7FEFF 		bl	strlen
 1742              	.LVL195:
 1743              		.loc 1 1243 9 view .LVU537
 1744 000c 0246     		mov	r2, r0
 1745              	.LVL196:
1244:RTT/SEGGER_RTT.c ****   return SEGGER_RTT_Write(BufferIndex, s, Len);
ARM GAS  C:\Users\wizar\AppData\Local\Temp\ccRaZdSN.s 			page 58


 1746              		.loc 1 1244 3 is_stmt 1 view .LVU538
 1747              		.loc 1 1244 10 is_stmt 0 view .LVU539
 1748 000e 2146     		mov	r1, r4
 1749 0010 2846     		mov	r0, r5
 1750              	.LVL197:
 1751              		.loc 1 1244 10 view .LVU540
 1752 0012 FFF7FEFF 		bl	SEGGER_RTT_Write
 1753              	.LVL198:
1245:RTT/SEGGER_RTT.c **** }
 1754              		.loc 1 1245 1 view .LVU541
 1755 0016 38BD     		pop	{r3, r4, r5, pc}
 1756              		.loc 1 1245 1 view .LVU542
 1757              		.cfi_endproc
 1758              	.LFE14:
 1760              		.section	.text.SEGGER_RTT_PutCharSkipNoLock,"ax",%progbits
 1761              		.align	1
 1762              		.global	SEGGER_RTT_PutCharSkipNoLock
 1763              		.syntax unified
 1764              		.thumb
 1765              		.thumb_func
 1767              	SEGGER_RTT_PutCharSkipNoLock:
 1768              	.LVL199:
 1769              	.LFB15:
1246:RTT/SEGGER_RTT.c **** 
1247:RTT/SEGGER_RTT.c **** /*********************************************************************
1248:RTT/SEGGER_RTT.c **** *
1249:RTT/SEGGER_RTT.c **** *       SEGGER_RTT_PutCharSkipNoLock
1250:RTT/SEGGER_RTT.c **** *
1251:RTT/SEGGER_RTT.c **** *  Function description
1252:RTT/SEGGER_RTT.c **** *    Stores a single character/byte in SEGGER RTT buffer.
1253:RTT/SEGGER_RTT.c **** *    SEGGER_RTT_PutCharSkipNoLock does not lock the application and
1254:RTT/SEGGER_RTT.c **** *    skips the byte, if it does not fit into the buffer.
1255:RTT/SEGGER_RTT.c **** *
1256:RTT/SEGGER_RTT.c **** *  Parameters
1257:RTT/SEGGER_RTT.c **** *    BufferIndex  Index of "Up"-buffer to be used (e.g. 0 for "Terminal").
1258:RTT/SEGGER_RTT.c **** *    c            Byte to be stored.
1259:RTT/SEGGER_RTT.c **** *
1260:RTT/SEGGER_RTT.c **** *  Return value
1261:RTT/SEGGER_RTT.c **** *    Number of bytes which have been stored in the "Up"-buffer.
1262:RTT/SEGGER_RTT.c **** *
1263:RTT/SEGGER_RTT.c **** *  Notes
1264:RTT/SEGGER_RTT.c **** *    (1) If there is not enough space in the "Up"-buffer, the character is dropped.
1265:RTT/SEGGER_RTT.c **** *    (2) For performance reasons this function does not call Init()
1266:RTT/SEGGER_RTT.c **** *        and may only be called after RTT has been initialized.
1267:RTT/SEGGER_RTT.c **** *        Either by calling SEGGER_RTT_Init() or calling another RTT API function first.
1268:RTT/SEGGER_RTT.c **** */
1269:RTT/SEGGER_RTT.c **** 
1270:RTT/SEGGER_RTT.c **** unsigned SEGGER_RTT_PutCharSkipNoLock(unsigned BufferIndex, char c) {
 1770              		.loc 1 1270 69 is_stmt 1 view -0
 1771              		.cfi_startproc
 1772              		@ args = 0, pretend = 0, frame = 0
 1773              		@ frame_needed = 0, uses_anonymous_args = 0
 1774              		@ link register save eliminated.
 1775              		.loc 1 1270 69 is_stmt 0 view .LVU544
 1776 0000 30B4     		push	{r4, r5}
 1777              	.LCFI16:
 1778              		.cfi_def_cfa_offset 8
ARM GAS  C:\Users\wizar\AppData\Local\Temp\ccRaZdSN.s 			page 59


 1779              		.cfi_offset 4, -8
 1780              		.cfi_offset 5, -4
1271:RTT/SEGGER_RTT.c ****   SEGGER_RTT_BUFFER_UP* pRing;
 1781              		.loc 1 1271 3 is_stmt 1 view .LVU545
1272:RTT/SEGGER_RTT.c ****   unsigned              WrOff;
 1782              		.loc 1 1272 3 view .LVU546
1273:RTT/SEGGER_RTT.c ****   unsigned              Status;
 1783              		.loc 1 1273 3 view .LVU547
1274:RTT/SEGGER_RTT.c ****   volatile char*        pDst;
 1784              		.loc 1 1274 3 view .LVU548
1275:RTT/SEGGER_RTT.c ****   //
1276:RTT/SEGGER_RTT.c ****   // Get "to-host" ring buffer.
1277:RTT/SEGGER_RTT.c ****   //
1278:RTT/SEGGER_RTT.c ****   pRing = (SEGGER_RTT_BUFFER_UP*)((char*)&_SEGGER_RTT.aUp[BufferIndex] + SEGGER_RTT_UNCACHED_OFF); 
 1785              		.loc 1 1278 3 view .LVU549
 1786              	.LVL200:
1279:RTT/SEGGER_RTT.c ****   //
1280:RTT/SEGGER_RTT.c ****   // Get write position and handle wrap-around if necessary
1281:RTT/SEGGER_RTT.c ****   //
1282:RTT/SEGGER_RTT.c ****   WrOff = pRing->WrOff + 1;
 1787              		.loc 1 1282 3 view .LVU550
 1788              		.loc 1 1282 16 is_stmt 0 view .LVU551
 1789 0002 00EB4002 		add	r2, r0, r0, lsl #1
 1790 0006 114B     		ldr	r3, .L112
 1791 0008 03EBC203 		add	r3, r3, r2, lsl #3
 1792 000c 5D6A     		ldr	r5, [r3, #36]
 1793              		.loc 1 1282 9 view .LVU552
 1794 000e 6A1C     		adds	r2, r5, #1
 1795              	.LVL201:
1283:RTT/SEGGER_RTT.c ****   if (WrOff == pRing->SizeOfBuffer) {
 1796              		.loc 1 1283 3 is_stmt 1 view .LVU553
 1797              		.loc 1 1283 21 is_stmt 0 view .LVU554
 1798 0010 1B6A     		ldr	r3, [r3, #32]
 1799              		.loc 1 1283 6 view .LVU555
 1800 0012 9342     		cmp	r3, r2
 1801 0014 16D0     		beq	.L111
 1802              	.LVL202:
 1803              	.L106:
1284:RTT/SEGGER_RTT.c ****     WrOff = 0;
1285:RTT/SEGGER_RTT.c ****   }
1286:RTT/SEGGER_RTT.c ****   //
1287:RTT/SEGGER_RTT.c ****   // Output byte if free space is available
1288:RTT/SEGGER_RTT.c ****   //
1289:RTT/SEGGER_RTT.c ****   if (WrOff != pRing->RdOff) {
 1804              		.loc 1 1289 3 is_stmt 1 view .LVU556
 1805              		.loc 1 1289 21 is_stmt 0 view .LVU557
 1806 0016 00EB4003 		add	r3, r0, r0, lsl #1
 1807 001a 0C4C     		ldr	r4, .L112
 1808 001c 04EBC303 		add	r3, r4, r3, lsl #3
 1809 0020 9B6A     		ldr	r3, [r3, #40]
 1810              		.loc 1 1289 6 view .LVU558
 1811 0022 9342     		cmp	r3, r2
 1812 0024 10D0     		beq	.L109
1290:RTT/SEGGER_RTT.c ****     pDst = (pRing->pBuffer + pRing->WrOff) + SEGGER_RTT_UNCACHED_OFF;
 1813              		.loc 1 1290 5 is_stmt 1 view .LVU559
 1814              		.loc 1 1290 18 is_stmt 0 view .LVU560
 1815 0026 431C     		adds	r3, r0, #1
ARM GAS  C:\Users\wizar\AppData\Local\Temp\ccRaZdSN.s 			page 60


 1816 0028 03EB4303 		add	r3, r3, r3, lsl #1
 1817 002c 04EBC303 		add	r3, r4, r3, lsl #3
 1818 0030 5B68     		ldr	r3, [r3, #4]
 1819              	.LVL203:
1291:RTT/SEGGER_RTT.c ****     *pDst = c;
 1820              		.loc 1 1291 5 is_stmt 1 view .LVU561
 1821              		.loc 1 1291 11 is_stmt 0 view .LVU562
 1822 0032 5955     		strb	r1, [r3, r5]
1292:RTT/SEGGER_RTT.c ****     RTT__DMB();                     // Force data write to be complete before writing the <WrOff>, 
 1823              		.loc 1 1292 15 is_stmt 1 view .LVU563
1293:RTT/SEGGER_RTT.c ****     pRing->WrOff = WrOff;
 1824              		.loc 1 1293 5 view .LVU564
 1825              		.loc 1 1293 18 is_stmt 0 view .LVU565
 1826 0034 00EB4000 		add	r0, r0, r0, lsl #1
 1827              	.LVL204:
 1828              		.loc 1 1293 18 view .LVU566
 1829 0038 04EBC000 		add	r0, r4, r0, lsl #3
 1830 003c 4262     		str	r2, [r0, #36]
1294:RTT/SEGGER_RTT.c ****     Status = 1;
 1831              		.loc 1 1294 5 is_stmt 1 view .LVU567
 1832              	.LVL205:
 1833              		.loc 1 1294 12 is_stmt 0 view .LVU568
 1834 003e 0120     		movs	r0, #1
 1835              	.LVL206:
 1836              	.L105:
1295:RTT/SEGGER_RTT.c ****   } else {
1296:RTT/SEGGER_RTT.c ****     Status = 0;
1297:RTT/SEGGER_RTT.c ****   }
1298:RTT/SEGGER_RTT.c ****   //
1299:RTT/SEGGER_RTT.c ****   return Status;
1300:RTT/SEGGER_RTT.c **** }
 1837              		.loc 1 1300 1 view .LVU569
 1838 0040 30BC     		pop	{r4, r5}
 1839              	.LCFI17:
 1840              		.cfi_remember_state
 1841              		.cfi_restore 5
 1842              		.cfi_restore 4
 1843              		.cfi_def_cfa_offset 0
 1844 0042 7047     		bx	lr
 1845              	.LVL207:
 1846              	.L111:
 1847              	.LCFI18:
 1848              		.cfi_restore_state
1284:RTT/SEGGER_RTT.c ****   }
 1849              		.loc 1 1284 11 view .LVU570
 1850 0044 0022     		movs	r2, #0
 1851              	.LVL208:
1284:RTT/SEGGER_RTT.c ****   }
 1852              		.loc 1 1284 11 view .LVU571
 1853 0046 E6E7     		b	.L106
 1854              	.LVL209:
 1855              	.L109:
1296:RTT/SEGGER_RTT.c ****   }
 1856              		.loc 1 1296 12 view .LVU572
 1857 0048 0020     		movs	r0, #0
 1858              	.LVL210:
1299:RTT/SEGGER_RTT.c **** }
ARM GAS  C:\Users\wizar\AppData\Local\Temp\ccRaZdSN.s 			page 61


 1859              		.loc 1 1299 3 is_stmt 1 view .LVU573
1299:RTT/SEGGER_RTT.c **** }
 1860              		.loc 1 1299 10 is_stmt 0 view .LVU574
 1861 004a F9E7     		b	.L105
 1862              	.L113:
 1863              		.align	2
 1864              	.L112:
 1865 004c 00000000 		.word	.LANCHOR1
 1866              		.cfi_endproc
 1867              	.LFE15:
 1869              		.section	.text.SEGGER_RTT_PutCharSkip,"ax",%progbits
 1870              		.align	1
 1871              		.global	SEGGER_RTT_PutCharSkip
 1872              		.syntax unified
 1873              		.thumb
 1874              		.thumb_func
 1876              	SEGGER_RTT_PutCharSkip:
 1877              	.LVL211:
 1878              	.LFB16:
1301:RTT/SEGGER_RTT.c **** 
1302:RTT/SEGGER_RTT.c **** /*********************************************************************
1303:RTT/SEGGER_RTT.c **** *
1304:RTT/SEGGER_RTT.c **** *       SEGGER_RTT_PutCharSkip
1305:RTT/SEGGER_RTT.c **** *
1306:RTT/SEGGER_RTT.c **** *  Function description
1307:RTT/SEGGER_RTT.c **** *    Stores a single character/byte in SEGGER RTT buffer.
1308:RTT/SEGGER_RTT.c **** *
1309:RTT/SEGGER_RTT.c **** *  Parameters
1310:RTT/SEGGER_RTT.c **** *    BufferIndex  Index of "Up"-buffer to be used (e.g. 0 for "Terminal").
1311:RTT/SEGGER_RTT.c **** *    c            Byte to be stored.
1312:RTT/SEGGER_RTT.c **** *
1313:RTT/SEGGER_RTT.c **** *  Return value
1314:RTT/SEGGER_RTT.c **** *    Number of bytes which have been stored in the "Up"-buffer.
1315:RTT/SEGGER_RTT.c **** *
1316:RTT/SEGGER_RTT.c **** *  Notes
1317:RTT/SEGGER_RTT.c **** *    (1) If there is not enough space in the "Up"-buffer, the character is dropped.
1318:RTT/SEGGER_RTT.c **** */
1319:RTT/SEGGER_RTT.c **** 
1320:RTT/SEGGER_RTT.c **** unsigned SEGGER_RTT_PutCharSkip(unsigned BufferIndex, char c) {
 1879              		.loc 1 1320 63 is_stmt 1 view -0
 1880              		.cfi_startproc
 1881              		@ args = 0, pretend = 0, frame = 0
 1882              		@ frame_needed = 0, uses_anonymous_args = 0
 1883              		.loc 1 1320 63 is_stmt 0 view .LVU576
 1884 0000 38B5     		push	{r3, r4, r5, lr}
 1885              	.LCFI19:
 1886              		.cfi_def_cfa_offset 16
 1887              		.cfi_offset 3, -16
 1888              		.cfi_offset 4, -12
 1889              		.cfi_offset 5, -8
 1890              		.cfi_offset 14, -4
 1891 0002 0446     		mov	r4, r0
 1892 0004 0D46     		mov	r5, r1
1321:RTT/SEGGER_RTT.c ****   SEGGER_RTT_BUFFER_UP* pRing;
 1893              		.loc 1 1321 3 is_stmt 1 view .LVU577
1322:RTT/SEGGER_RTT.c ****   unsigned              WrOff;
 1894              		.loc 1 1322 3 view .LVU578
ARM GAS  C:\Users\wizar\AppData\Local\Temp\ccRaZdSN.s 			page 62


1323:RTT/SEGGER_RTT.c ****   unsigned              Status;
 1895              		.loc 1 1323 3 view .LVU579
1324:RTT/SEGGER_RTT.c ****   volatile char*        pDst;
 1896              		.loc 1 1324 3 view .LVU580
 1897              	.LBB14:
1325:RTT/SEGGER_RTT.c ****   //
1326:RTT/SEGGER_RTT.c ****   // Prepare
1327:RTT/SEGGER_RTT.c ****   //
1328:RTT/SEGGER_RTT.c ****   INIT();
 1898              		.loc 1 1328 3 view .LVU581
 1899              		.loc 1 1328 3 view .LVU582
 1900              	.LVL212:
 1901              		.loc 1 1328 3 view .LVU583
 1902              		.loc 1 1328 3 view .LVU584
 1903 0006 194B     		ldr	r3, .L123
 1904 0008 1B78     		ldrb	r3, [r3]	@ zero_extendqisi2
 1905 000a 3BB3     		cbz	r3, .L121
 1906              	.LVL213:
 1907              	.L115:
 1908              		.loc 1 1328 3 discriminator 3 view .LVU585
 1909              	.LBE14:
 1910              		.loc 1 1328 9 discriminator 3 view .LVU586
 1911              	.LBB15:
1329:RTT/SEGGER_RTT.c ****   SEGGER_RTT_LOCK();
 1912              		.loc 1 1329 3 discriminator 3 view .LVU587
 1913              		.loc 1 1329 3 discriminator 3 view .LVU588
 1914              		.syntax unified
 1915              	@ 1329 "RTT/SEGGER_RTT.c" 1
 1916 000c EFF3118C 		mrs   ip, basepri  
 1917 0010 4FF02001 		mov   r1, #32       
 1918 0014 81F31188 		msr   basepri, r1  
 1919              		
 1920              	@ 0 "" 2
 1921              	.LVL214:
 1922              		.loc 1 1329 20 discriminator 3 view .LVU589
1330:RTT/SEGGER_RTT.c ****   //
1331:RTT/SEGGER_RTT.c ****   // Get "to-host" ring buffer.
1332:RTT/SEGGER_RTT.c ****   //
1333:RTT/SEGGER_RTT.c ****   pRing = (SEGGER_RTT_BUFFER_UP*)((char*)&_SEGGER_RTT.aUp[BufferIndex] + SEGGER_RTT_UNCACHED_OFF); 
 1923              		.loc 1 1333 3 discriminator 3 view .LVU590
1334:RTT/SEGGER_RTT.c ****   //
1335:RTT/SEGGER_RTT.c ****   // Get write position and handle wrap-around if necessary
1336:RTT/SEGGER_RTT.c ****   //
1337:RTT/SEGGER_RTT.c ****   WrOff = pRing->WrOff + 1;
 1924              		.loc 1 1337 3 discriminator 3 view .LVU591
 1925              		.loc 1 1337 16 is_stmt 0 discriminator 3 view .LVU592
 1926              		.thumb
 1927              		.syntax unified
 1928 0018 04EB4403 		add	r3, r4, r4, lsl #1
 1929 001c 134A     		ldr	r2, .L123
 1930 001e 02EBC303 		add	r3, r2, r3, lsl #3
 1931 0022 586A     		ldr	r0, [r3, #36]
 1932              		.loc 1 1337 9 discriminator 3 view .LVU593
 1933 0024 421C     		adds	r2, r0, #1
 1934              	.LVL215:
1338:RTT/SEGGER_RTT.c ****   if (WrOff == pRing->SizeOfBuffer) {
 1935              		.loc 1 1338 3 is_stmt 1 discriminator 3 view .LVU594
ARM GAS  C:\Users\wizar\AppData\Local\Temp\ccRaZdSN.s 			page 63


 1936              		.loc 1 1338 21 is_stmt 0 discriminator 3 view .LVU595
 1937 0026 1B6A     		ldr	r3, [r3, #32]
 1938              		.loc 1 1338 6 discriminator 3 view .LVU596
 1939 0028 9342     		cmp	r3, r2
 1940 002a 1AD0     		beq	.L122
 1941              	.LVL216:
 1942              	.L116:
1339:RTT/SEGGER_RTT.c ****     WrOff = 0;
1340:RTT/SEGGER_RTT.c ****   }
1341:RTT/SEGGER_RTT.c ****   //
1342:RTT/SEGGER_RTT.c ****   // Output byte if free space is available
1343:RTT/SEGGER_RTT.c ****   //
1344:RTT/SEGGER_RTT.c ****   if (WrOff != pRing->RdOff) {
 1943              		.loc 1 1344 3 is_stmt 1 view .LVU597
 1944              		.loc 1 1344 21 is_stmt 0 view .LVU598
 1945 002c 04EB4403 		add	r3, r4, r4, lsl #1
 1946 0030 0E49     		ldr	r1, .L123
 1947 0032 01EBC303 		add	r3, r1, r3, lsl #3
 1948 0036 9B6A     		ldr	r3, [r3, #40]
 1949              		.loc 1 1344 6 view .LVU599
 1950 0038 9342     		cmp	r3, r2
 1951 003a 14D0     		beq	.L119
1345:RTT/SEGGER_RTT.c ****     pDst  = (pRing->pBuffer + pRing->WrOff) + SEGGER_RTT_UNCACHED_OFF;
 1952              		.loc 1 1345 5 is_stmt 1 view .LVU600
 1953              		.loc 1 1345 19 is_stmt 0 view .LVU601
 1954 003c 631C     		adds	r3, r4, #1
 1955 003e 03EB4303 		add	r3, r3, r3, lsl #1
 1956 0042 01EBC303 		add	r3, r1, r3, lsl #3
 1957 0046 5B68     		ldr	r3, [r3, #4]
 1958              	.LVL217:
1346:RTT/SEGGER_RTT.c ****     *pDst = c;
 1959              		.loc 1 1346 5 is_stmt 1 view .LVU602
 1960              		.loc 1 1346 11 is_stmt 0 view .LVU603
 1961 0048 1D54     		strb	r5, [r3, r0]
1347:RTT/SEGGER_RTT.c ****     RTT__DMB();                     // Force data write to be complete before writing the <WrOff>, 
 1962              		.loc 1 1347 15 is_stmt 1 view .LVU604
1348:RTT/SEGGER_RTT.c ****     pRing->WrOff = WrOff;
 1963              		.loc 1 1348 5 view .LVU605
 1964              		.loc 1 1348 18 is_stmt 0 view .LVU606
 1965 004a 04EB4404 		add	r4, r4, r4, lsl #1
 1966              	.LVL218:
 1967              		.loc 1 1348 18 view .LVU607
 1968 004e 01EBC404 		add	r4, r1, r4, lsl #3
 1969 0052 6262     		str	r2, [r4, #36]
1349:RTT/SEGGER_RTT.c ****     Status = 1;
 1970              		.loc 1 1349 5 is_stmt 1 view .LVU608
 1971              	.LVL219:
 1972              		.loc 1 1349 12 is_stmt 0 view .LVU609
 1973 0054 0120     		movs	r0, #1
 1974              	.LVL220:
 1975              	.L117:
1350:RTT/SEGGER_RTT.c ****   } else {
1351:RTT/SEGGER_RTT.c ****     Status = 0;
1352:RTT/SEGGER_RTT.c ****   }
1353:RTT/SEGGER_RTT.c ****   //
1354:RTT/SEGGER_RTT.c ****   // Finish up.
1355:RTT/SEGGER_RTT.c ****   //
ARM GAS  C:\Users\wizar\AppData\Local\Temp\ccRaZdSN.s 			page 64


1356:RTT/SEGGER_RTT.c ****   SEGGER_RTT_UNLOCK();
 1976              		.loc 1 1356 3 is_stmt 1 view .LVU610
 1977              		.syntax unified
 1978              	@ 1356 "RTT/SEGGER_RTT.c" 1
 1979 0056 8CF31188 		msr   basepri, ip  
 1980              		
 1981              	@ 0 "" 2
 1982              		.thumb
 1983              		.syntax unified
 1984              	.LBE15:
 1985              		.loc 1 1356 22 view .LVU611
1357:RTT/SEGGER_RTT.c ****   //
1358:RTT/SEGGER_RTT.c ****   return Status;
 1986              		.loc 1 1358 3 view .LVU612
1359:RTT/SEGGER_RTT.c **** }
 1987              		.loc 1 1359 1 is_stmt 0 view .LVU613
 1988 005a 38BD     		pop	{r3, r4, r5, pc}
 1989              	.LVL221:
 1990              	.L121:
 1991              	.LBB16:
1328:RTT/SEGGER_RTT.c ****   SEGGER_RTT_LOCK();
 1992              		.loc 1 1328 3 is_stmt 1 discriminator 1 view .LVU614
 1993 005c FFF7FEFF 		bl	_DoInit
 1994              	.LVL222:
1328:RTT/SEGGER_RTT.c ****   SEGGER_RTT_LOCK();
 1995              		.loc 1 1328 3 is_stmt 0 discriminator 1 view .LVU615
 1996 0060 D4E7     		b	.L115
 1997              	.LVL223:
 1998              	.L122:
1328:RTT/SEGGER_RTT.c ****   SEGGER_RTT_LOCK();
 1999              		.loc 1 1328 3 discriminator 1 view .LVU616
 2000              	.LBE16:
 2001              	.LBB17:
1339:RTT/SEGGER_RTT.c ****   }
 2002              		.loc 1 1339 11 view .LVU617
 2003 0062 0022     		movs	r2, #0
 2004              	.LVL224:
1339:RTT/SEGGER_RTT.c ****   }
 2005              		.loc 1 1339 11 view .LVU618
 2006 0064 E2E7     		b	.L116
 2007              	.LVL225:
 2008              	.L119:
1351:RTT/SEGGER_RTT.c ****   }
 2009              		.loc 1 1351 12 view .LVU619
 2010 0066 0020     		movs	r0, #0
 2011 0068 F5E7     		b	.L117
 2012              	.L124:
 2013 006a 00BF     		.align	2
 2014              	.L123:
 2015 006c 00000000 		.word	.LANCHOR1
 2016              	.LBE17:
 2017              		.cfi_endproc
 2018              	.LFE16:
 2020              		.section	.text.SEGGER_RTT_PutChar,"ax",%progbits
 2021              		.align	1
 2022              		.global	SEGGER_RTT_PutChar
 2023              		.syntax unified
ARM GAS  C:\Users\wizar\AppData\Local\Temp\ccRaZdSN.s 			page 65


 2024              		.thumb
 2025              		.thumb_func
 2027              	SEGGER_RTT_PutChar:
 2028              	.LVL226:
 2029              	.LFB17:
1360:RTT/SEGGER_RTT.c **** 
1361:RTT/SEGGER_RTT.c ****  /*********************************************************************
1362:RTT/SEGGER_RTT.c **** *
1363:RTT/SEGGER_RTT.c **** *       SEGGER_RTT_PutChar
1364:RTT/SEGGER_RTT.c **** *
1365:RTT/SEGGER_RTT.c **** *  Function description
1366:RTT/SEGGER_RTT.c **** *    Stores a single character/byte in SEGGER RTT buffer.
1367:RTT/SEGGER_RTT.c **** *
1368:RTT/SEGGER_RTT.c **** *  Parameters
1369:RTT/SEGGER_RTT.c **** *    BufferIndex  Index of "Up"-buffer to be used (e.g. 0 for "Terminal").
1370:RTT/SEGGER_RTT.c **** *    c            Byte to be stored.
1371:RTT/SEGGER_RTT.c **** *
1372:RTT/SEGGER_RTT.c **** *  Return value
1373:RTT/SEGGER_RTT.c **** *    Number of bytes which have been stored in the "Up"-buffer.
1374:RTT/SEGGER_RTT.c **** *
1375:RTT/SEGGER_RTT.c **** *  Notes
1376:RTT/SEGGER_RTT.c **** *    (1) Data is stored according to buffer flags.
1377:RTT/SEGGER_RTT.c **** */
1378:RTT/SEGGER_RTT.c **** 
1379:RTT/SEGGER_RTT.c **** unsigned SEGGER_RTT_PutChar(unsigned BufferIndex, char c) {
 2030              		.loc 1 1379 59 is_stmt 1 view -0
 2031              		.cfi_startproc
 2032              		@ args = 0, pretend = 0, frame = 0
 2033              		@ frame_needed = 0, uses_anonymous_args = 0
 2034              		.loc 1 1379 59 is_stmt 0 view .LVU621
 2035 0000 38B5     		push	{r3, r4, r5, lr}
 2036              	.LCFI20:
 2037              		.cfi_def_cfa_offset 16
 2038              		.cfi_offset 3, -16
 2039              		.cfi_offset 4, -12
 2040              		.cfi_offset 5, -8
 2041              		.cfi_offset 14, -4
 2042 0002 0446     		mov	r4, r0
 2043 0004 0D46     		mov	r5, r1
1380:RTT/SEGGER_RTT.c ****   SEGGER_RTT_BUFFER_UP* pRing;
 2044              		.loc 1 1380 3 is_stmt 1 view .LVU622
1381:RTT/SEGGER_RTT.c ****   unsigned              WrOff;
 2045              		.loc 1 1381 3 view .LVU623
1382:RTT/SEGGER_RTT.c ****   unsigned              Status;
 2046              		.loc 1 1382 3 view .LVU624
1383:RTT/SEGGER_RTT.c ****   volatile char*        pDst;
 2047              		.loc 1 1383 3 view .LVU625
 2048              	.LBB18:
1384:RTT/SEGGER_RTT.c ****   //
1385:RTT/SEGGER_RTT.c ****   // Prepare
1386:RTT/SEGGER_RTT.c ****   //
1387:RTT/SEGGER_RTT.c ****   INIT();
 2049              		.loc 1 1387 3 view .LVU626
 2050              		.loc 1 1387 3 view .LVU627
 2051              	.LVL227:
 2052              		.loc 1 1387 3 view .LVU628
 2053              		.loc 1 1387 3 view .LVU629
ARM GAS  C:\Users\wizar\AppData\Local\Temp\ccRaZdSN.s 			page 66


 2054 0006 214B     		ldr	r3, .L136
 2055 0008 1B78     		ldrb	r3, [r3]	@ zero_extendqisi2
 2056 000a 7BB3     		cbz	r3, .L134
 2057              	.LVL228:
 2058              	.L126:
 2059              		.loc 1 1387 3 discriminator 3 view .LVU630
 2060              	.LBE18:
 2061              		.loc 1 1387 9 discriminator 3 view .LVU631
 2062              	.LBB19:
1388:RTT/SEGGER_RTT.c ****   SEGGER_RTT_LOCK();
 2063              		.loc 1 1388 3 discriminator 3 view .LVU632
 2064              		.loc 1 1388 3 discriminator 3 view .LVU633
 2065              		.syntax unified
 2066              	@ 1388 "RTT/SEGGER_RTT.c" 1
 2067 000c EFF3118C 		mrs   ip, basepri  
 2068 0010 4FF02001 		mov   r1, #32       
 2069 0014 81F31188 		msr   basepri, r1  
 2070              		
 2071              	@ 0 "" 2
 2072              	.LVL229:
 2073              		.loc 1 1388 20 discriminator 3 view .LVU634
1389:RTT/SEGGER_RTT.c ****   //
1390:RTT/SEGGER_RTT.c ****   // Get "to-host" ring buffer.
1391:RTT/SEGGER_RTT.c ****   //
1392:RTT/SEGGER_RTT.c ****   pRing = (SEGGER_RTT_BUFFER_UP*)((char*)&_SEGGER_RTT.aUp[BufferIndex] + SEGGER_RTT_UNCACHED_OFF); 
 2074              		.loc 1 1392 3 discriminator 3 view .LVU635
1393:RTT/SEGGER_RTT.c ****   //
1394:RTT/SEGGER_RTT.c ****   // Get write position and handle wrap-around if necessary
1395:RTT/SEGGER_RTT.c ****   //
1396:RTT/SEGGER_RTT.c ****   WrOff = pRing->WrOff + 1;
 2075              		.loc 1 1396 3 discriminator 3 view .LVU636
 2076              		.loc 1 1396 16 is_stmt 0 discriminator 3 view .LVU637
 2077              		.thumb
 2078              		.syntax unified
 2079 0018 04EB4403 		add	r3, r4, r4, lsl #1
 2080 001c 1B4A     		ldr	r2, .L136
 2081 001e 02EBC303 		add	r3, r2, r3, lsl #3
 2082 0022 596A     		ldr	r1, [r3, #36]
 2083              		.loc 1 1396 9 discriminator 3 view .LVU638
 2084 0024 481C     		adds	r0, r1, #1
 2085              	.LVL230:
1397:RTT/SEGGER_RTT.c ****   if (WrOff == pRing->SizeOfBuffer) {
 2086              		.loc 1 1397 3 is_stmt 1 discriminator 3 view .LVU639
 2087              		.loc 1 1397 21 is_stmt 0 discriminator 3 view .LVU640
 2088 0026 1B6A     		ldr	r3, [r3, #32]
 2089              		.loc 1 1397 6 discriminator 3 view .LVU641
 2090 0028 8342     		cmp	r3, r0
 2091 002a 22D0     		beq	.L135
 2092              	.LVL231:
 2093              	.L127:
1398:RTT/SEGGER_RTT.c ****     WrOff = 0;
1399:RTT/SEGGER_RTT.c ****   }
1400:RTT/SEGGER_RTT.c ****   //
1401:RTT/SEGGER_RTT.c ****   // Wait for free space if mode is set to blocking
1402:RTT/SEGGER_RTT.c ****   //
1403:RTT/SEGGER_RTT.c ****   if (pRing->Flags == SEGGER_RTT_MODE_BLOCK_IF_FIFO_FULL) {
 2094              		.loc 1 1403 3 is_stmt 1 view .LVU642
ARM GAS  C:\Users\wizar\AppData\Local\Temp\ccRaZdSN.s 			page 67


 2095              		.loc 1 1403 12 is_stmt 0 view .LVU643
 2096 002c 04EB4403 		add	r3, r4, r4, lsl #1
 2097 0030 164A     		ldr	r2, .L136
 2098 0032 02EBC303 		add	r3, r2, r3, lsl #3
 2099 0036 DB6A     		ldr	r3, [r3, #44]
 2100              		.loc 1 1403 6 view .LVU644
 2101 0038 022B     		cmp	r3, #2
 2102 003a 1CD0     		beq	.L129
 2103              	.L128:
1404:RTT/SEGGER_RTT.c ****     while (WrOff == pRing->RdOff) {
1405:RTT/SEGGER_RTT.c ****       ;
1406:RTT/SEGGER_RTT.c ****     }
1407:RTT/SEGGER_RTT.c ****   }
1408:RTT/SEGGER_RTT.c ****   //
1409:RTT/SEGGER_RTT.c ****   // Output byte if free space is available
1410:RTT/SEGGER_RTT.c ****   //
1411:RTT/SEGGER_RTT.c ****   if (WrOff != pRing->RdOff) {
 2104              		.loc 1 1411 3 is_stmt 1 view .LVU645
 2105              		.loc 1 1411 21 is_stmt 0 view .LVU646
 2106 003c 04EB4403 		add	r3, r4, r4, lsl #1
 2107 0040 124A     		ldr	r2, .L136
 2108 0042 02EBC303 		add	r3, r2, r3, lsl #3
 2109 0046 9B6A     		ldr	r3, [r3, #40]
 2110              		.loc 1 1411 6 view .LVU647
 2111 0048 8342     		cmp	r3, r0
 2112 004a 1DD0     		beq	.L132
1412:RTT/SEGGER_RTT.c ****     pDst  = (pRing->pBuffer + pRing->WrOff) + SEGGER_RTT_UNCACHED_OFF;
 2113              		.loc 1 1412 5 is_stmt 1 view .LVU648
 2114              		.loc 1 1412 19 is_stmt 0 view .LVU649
 2115 004c 631C     		adds	r3, r4, #1
 2116 004e 03EB4303 		add	r3, r3, r3, lsl #1
 2117 0052 02EBC303 		add	r3, r2, r3, lsl #3
 2118 0056 5B68     		ldr	r3, [r3, #4]
 2119              	.LVL232:
1413:RTT/SEGGER_RTT.c ****     *pDst = c;
 2120              		.loc 1 1413 5 is_stmt 1 view .LVU650
 2121              		.loc 1 1413 11 is_stmt 0 view .LVU651
 2122 0058 5D54     		strb	r5, [r3, r1]
1414:RTT/SEGGER_RTT.c ****     RTT__DMB();                     // Force data write to be complete before writing the <WrOff>, 
 2123              		.loc 1 1414 15 is_stmt 1 view .LVU652
1415:RTT/SEGGER_RTT.c ****     pRing->WrOff = WrOff;
 2124              		.loc 1 1415 5 view .LVU653
 2125              		.loc 1 1415 18 is_stmt 0 view .LVU654
 2126 005a 04EB4404 		add	r4, r4, r4, lsl #1
 2127              	.LVL233:
 2128              		.loc 1 1415 18 view .LVU655
 2129 005e 02EBC404 		add	r4, r2, r4, lsl #3
 2130 0062 6062     		str	r0, [r4, #36]
1416:RTT/SEGGER_RTT.c ****     Status = 1;
 2131              		.loc 1 1416 5 is_stmt 1 view .LVU656
 2132              	.LVL234:
 2133              		.loc 1 1416 12 is_stmt 0 view .LVU657
 2134 0064 0120     		movs	r0, #1
 2135              	.LVL235:
 2136              	.L130:
1417:RTT/SEGGER_RTT.c ****   } else {
1418:RTT/SEGGER_RTT.c ****     Status = 0;
ARM GAS  C:\Users\wizar\AppData\Local\Temp\ccRaZdSN.s 			page 68


1419:RTT/SEGGER_RTT.c ****   }
1420:RTT/SEGGER_RTT.c ****   //
1421:RTT/SEGGER_RTT.c ****   // Finish up.
1422:RTT/SEGGER_RTT.c ****   //
1423:RTT/SEGGER_RTT.c ****   SEGGER_RTT_UNLOCK();
 2137              		.loc 1 1423 3 is_stmt 1 view .LVU658
 2138              		.syntax unified
 2139              	@ 1423 "RTT/SEGGER_RTT.c" 1
 2140 0066 8CF31188 		msr   basepri, ip  
 2141              		
 2142              	@ 0 "" 2
 2143              		.thumb
 2144              		.syntax unified
 2145              	.LBE19:
 2146              		.loc 1 1423 22 view .LVU659
1424:RTT/SEGGER_RTT.c ****   return Status;
 2147              		.loc 1 1424 3 view .LVU660
1425:RTT/SEGGER_RTT.c **** }
 2148              		.loc 1 1425 1 is_stmt 0 view .LVU661
 2149 006a 38BD     		pop	{r3, r4, r5, pc}
 2150              	.LVL236:
 2151              	.L134:
 2152              	.LBB20:
1387:RTT/SEGGER_RTT.c ****   SEGGER_RTT_LOCK();
 2153              		.loc 1 1387 3 is_stmt 1 discriminator 1 view .LVU662
 2154 006c FFF7FEFF 		bl	_DoInit
 2155              	.LVL237:
1387:RTT/SEGGER_RTT.c ****   SEGGER_RTT_LOCK();
 2156              		.loc 1 1387 3 is_stmt 0 discriminator 1 view .LVU663
 2157 0070 CCE7     		b	.L126
 2158              	.LVL238:
 2159              	.L135:
1387:RTT/SEGGER_RTT.c ****   SEGGER_RTT_LOCK();
 2160              		.loc 1 1387 3 discriminator 1 view .LVU664
 2161              	.LBE20:
 2162              	.LBB21:
1398:RTT/SEGGER_RTT.c ****   }
 2163              		.loc 1 1398 11 view .LVU665
 2164 0072 0020     		movs	r0, #0
 2165              	.LVL239:
1398:RTT/SEGGER_RTT.c ****   }
 2166              		.loc 1 1398 11 view .LVU666
 2167 0074 DAE7     		b	.L127
 2168              	.LVL240:
 2169              	.L129:
1405:RTT/SEGGER_RTT.c ****     }
 2170              		.loc 1 1405 7 is_stmt 1 discriminator 1 view .LVU667
1404:RTT/SEGGER_RTT.c ****       ;
 2171              		.loc 1 1404 11 discriminator 1 view .LVU668
1404:RTT/SEGGER_RTT.c ****       ;
 2172              		.loc 1 1404 26 is_stmt 0 discriminator 1 view .LVU669
 2173 0076 04EB4403 		add	r3, r4, r4, lsl #1
 2174 007a 044A     		ldr	r2, .L136
 2175 007c 02EBC303 		add	r3, r2, r3, lsl #3
 2176 0080 9B6A     		ldr	r3, [r3, #40]
1404:RTT/SEGGER_RTT.c ****       ;
 2177              		.loc 1 1404 11 discriminator 1 view .LVU670
ARM GAS  C:\Users\wizar\AppData\Local\Temp\ccRaZdSN.s 			page 69


 2178 0082 8342     		cmp	r3, r0
 2179 0084 F7D0     		beq	.L129
 2180 0086 D9E7     		b	.L128
 2181              	.L132:
1418:RTT/SEGGER_RTT.c ****   }
 2182              		.loc 1 1418 12 view .LVU671
 2183 0088 0020     		movs	r0, #0
 2184              	.LVL241:
1418:RTT/SEGGER_RTT.c ****   }
 2185              		.loc 1 1418 12 view .LVU672
 2186 008a ECE7     		b	.L130
 2187              	.L137:
 2188              		.align	2
 2189              	.L136:
 2190 008c 00000000 		.word	.LANCHOR1
 2191              	.LBE21:
 2192              		.cfi_endproc
 2193              	.LFE17:
 2195              		.section	.text.SEGGER_RTT_GetKey,"ax",%progbits
 2196              		.align	1
 2197              		.global	SEGGER_RTT_GetKey
 2198              		.syntax unified
 2199              		.thumb
 2200              		.thumb_func
 2202              	SEGGER_RTT_GetKey:
 2203              	.LFB18:
1426:RTT/SEGGER_RTT.c **** 
1427:RTT/SEGGER_RTT.c **** /*********************************************************************
1428:RTT/SEGGER_RTT.c **** *
1429:RTT/SEGGER_RTT.c **** *       SEGGER_RTT_GetKey
1430:RTT/SEGGER_RTT.c **** *
1431:RTT/SEGGER_RTT.c **** *  Function description
1432:RTT/SEGGER_RTT.c **** *    Reads one character from the SEGGER RTT buffer.
1433:RTT/SEGGER_RTT.c **** *    Host has previously stored data there.
1434:RTT/SEGGER_RTT.c **** *
1435:RTT/SEGGER_RTT.c **** *  Return value
1436:RTT/SEGGER_RTT.c **** *    <  0 -   No character available (buffer empty).
1437:RTT/SEGGER_RTT.c **** *    >= 0 -   Character which has been read. (Possible values: 0 - 255)
1438:RTT/SEGGER_RTT.c **** *
1439:RTT/SEGGER_RTT.c **** *  Notes
1440:RTT/SEGGER_RTT.c **** *    (1) This function is only specified for accesses to RTT buffer 0.
1441:RTT/SEGGER_RTT.c **** */
1442:RTT/SEGGER_RTT.c **** int SEGGER_RTT_GetKey(void) {
 2204              		.loc 1 1442 29 is_stmt 1 view -0
 2205              		.cfi_startproc
 2206              		@ args = 0, pretend = 0, frame = 8
 2207              		@ frame_needed = 0, uses_anonymous_args = 0
 2208 0000 00B5     		push	{lr}
 2209              	.LCFI21:
 2210              		.cfi_def_cfa_offset 4
 2211              		.cfi_offset 14, -4
 2212 0002 83B0     		sub	sp, sp, #12
 2213              	.LCFI22:
 2214              		.cfi_def_cfa_offset 16
1443:RTT/SEGGER_RTT.c ****   char c;
 2215              		.loc 1 1443 3 view .LVU674
1444:RTT/SEGGER_RTT.c ****   int r;
ARM GAS  C:\Users\wizar\AppData\Local\Temp\ccRaZdSN.s 			page 70


 2216              		.loc 1 1444 3 view .LVU675
1445:RTT/SEGGER_RTT.c **** 
1446:RTT/SEGGER_RTT.c ****   r = (int)SEGGER_RTT_Read(0u, &c, 1u);
 2217              		.loc 1 1446 3 view .LVU676
 2218              		.loc 1 1446 12 is_stmt 0 view .LVU677
 2219 0004 0122     		movs	r2, #1
 2220 0006 0DF10701 		add	r1, sp, #7
 2221 000a 0020     		movs	r0, #0
 2222 000c FFF7FEFF 		bl	SEGGER_RTT_Read
 2223              	.LVL242:
1447:RTT/SEGGER_RTT.c ****   if (r == 1) {
 2224              		.loc 1 1447 3 is_stmt 1 view .LVU678
 2225              		.loc 1 1447 6 is_stmt 0 view .LVU679
 2226 0010 0128     		cmp	r0, #1
 2227 0012 04D1     		bne	.L140
1448:RTT/SEGGER_RTT.c ****     r = (int)(unsigned char)c;
 2228              		.loc 1 1448 5 is_stmt 1 view .LVU680
 2229              		.loc 1 1448 9 is_stmt 0 view .LVU681
 2230 0014 9DF80700 		ldrb	r0, [sp, #7]	@ zero_extendqisi2
 2231              	.LVL243:
 2232              	.L138:
1449:RTT/SEGGER_RTT.c ****   } else {
1450:RTT/SEGGER_RTT.c ****     r = -1;
1451:RTT/SEGGER_RTT.c ****   }
1452:RTT/SEGGER_RTT.c ****   return r;
1453:RTT/SEGGER_RTT.c **** }
 2233              		.loc 1 1453 1 view .LVU682
 2234 0018 03B0     		add	sp, sp, #12
 2235              	.LCFI23:
 2236              		.cfi_remember_state
 2237              		.cfi_def_cfa_offset 4
 2238              		@ sp needed
 2239 001a 5DF804FB 		ldr	pc, [sp], #4
 2240              	.LVL244:
 2241              	.L140:
 2242              	.LCFI24:
 2243              		.cfi_restore_state
1450:RTT/SEGGER_RTT.c ****   }
 2244              		.loc 1 1450 7 view .LVU683
 2245 001e 4FF0FF30 		mov	r0, #-1
 2246              	.LVL245:
1452:RTT/SEGGER_RTT.c **** }
 2247              		.loc 1 1452 3 is_stmt 1 view .LVU684
1452:RTT/SEGGER_RTT.c **** }
 2248              		.loc 1 1452 10 is_stmt 0 view .LVU685
 2249 0022 F9E7     		b	.L138
 2250              		.cfi_endproc
 2251              	.LFE18:
 2253              		.section	.text.SEGGER_RTT_WaitKey,"ax",%progbits
 2254              		.align	1
 2255              		.global	SEGGER_RTT_WaitKey
 2256              		.syntax unified
 2257              		.thumb
 2258              		.thumb_func
 2260              	SEGGER_RTT_WaitKey:
 2261              	.LFB19:
1454:RTT/SEGGER_RTT.c **** 
ARM GAS  C:\Users\wizar\AppData\Local\Temp\ccRaZdSN.s 			page 71


1455:RTT/SEGGER_RTT.c **** /*********************************************************************
1456:RTT/SEGGER_RTT.c **** *
1457:RTT/SEGGER_RTT.c **** *       SEGGER_RTT_WaitKey
1458:RTT/SEGGER_RTT.c **** *
1459:RTT/SEGGER_RTT.c **** *  Function description
1460:RTT/SEGGER_RTT.c **** *    Waits until at least one character is avaible in the SEGGER RTT buffer.
1461:RTT/SEGGER_RTT.c **** *    Once a character is available, it is read and this function returns.
1462:RTT/SEGGER_RTT.c **** *
1463:RTT/SEGGER_RTT.c **** *  Return value
1464:RTT/SEGGER_RTT.c **** *    >=0 -   Character which has been read.
1465:RTT/SEGGER_RTT.c **** *
1466:RTT/SEGGER_RTT.c **** *  Notes
1467:RTT/SEGGER_RTT.c **** *    (1) This function is only specified for accesses to RTT buffer 0
1468:RTT/SEGGER_RTT.c **** *    (2) This function is blocking if no character is present in RTT buffer
1469:RTT/SEGGER_RTT.c **** */
1470:RTT/SEGGER_RTT.c **** int SEGGER_RTT_WaitKey(void) {
 2262              		.loc 1 1470 30 is_stmt 1 view -0
 2263              		.cfi_startproc
 2264              		@ args = 0, pretend = 0, frame = 0
 2265              		@ frame_needed = 0, uses_anonymous_args = 0
 2266 0000 08B5     		push	{r3, lr}
 2267              	.LCFI25:
 2268              		.cfi_def_cfa_offset 8
 2269              		.cfi_offset 3, -8
 2270              		.cfi_offset 14, -4
 2271              	.L143:
1471:RTT/SEGGER_RTT.c ****   int r;
 2272              		.loc 1 1471 3 discriminator 1 view .LVU687
1472:RTT/SEGGER_RTT.c **** 
1473:RTT/SEGGER_RTT.c ****   do {
 2273              		.loc 1 1473 3 discriminator 1 view .LVU688
1474:RTT/SEGGER_RTT.c ****     r = SEGGER_RTT_GetKey();
 2274              		.loc 1 1474 5 discriminator 1 view .LVU689
 2275              		.loc 1 1474 9 is_stmt 0 discriminator 1 view .LVU690
 2276 0002 FFF7FEFF 		bl	SEGGER_RTT_GetKey
 2277              	.LVL246:
1475:RTT/SEGGER_RTT.c ****   } while (r < 0);
 2278              		.loc 1 1475 11 is_stmt 1 discriminator 1 view .LVU691
 2279              		.loc 1 1475 3 is_stmt 0 discriminator 1 view .LVU692
 2280 0006 0028     		cmp	r0, #0
 2281              		.loc 1 1475 3 discriminator 1 view .LVU693
 2282 0008 FBDB     		blt	.L143
1476:RTT/SEGGER_RTT.c ****   return r;
 2283              		.loc 1 1476 3 is_stmt 1 view .LVU694
1477:RTT/SEGGER_RTT.c **** }
 2284              		.loc 1 1477 1 is_stmt 0 view .LVU695
 2285 000a 08BD     		pop	{r3, pc}
 2286              		.cfi_endproc
 2287              	.LFE19:
 2289              		.section	.text.SEGGER_RTT_HasKey,"ax",%progbits
 2290              		.align	1
 2291              		.global	SEGGER_RTT_HasKey
 2292              		.syntax unified
 2293              		.thumb
 2294              		.thumb_func
 2296              	SEGGER_RTT_HasKey:
 2297              	.LFB20:
ARM GAS  C:\Users\wizar\AppData\Local\Temp\ccRaZdSN.s 			page 72


1478:RTT/SEGGER_RTT.c **** 
1479:RTT/SEGGER_RTT.c **** /*********************************************************************
1480:RTT/SEGGER_RTT.c **** *
1481:RTT/SEGGER_RTT.c **** *       SEGGER_RTT_HasKey
1482:RTT/SEGGER_RTT.c **** *
1483:RTT/SEGGER_RTT.c **** *  Function description
1484:RTT/SEGGER_RTT.c **** *    Checks if at least one character for reading is available in the SEGGER RTT buffer.
1485:RTT/SEGGER_RTT.c **** *
1486:RTT/SEGGER_RTT.c **** *  Return value
1487:RTT/SEGGER_RTT.c **** *    == 0 -     No characters are available to read.
1488:RTT/SEGGER_RTT.c **** *    == 1 -     At least one character is available.
1489:RTT/SEGGER_RTT.c **** *
1490:RTT/SEGGER_RTT.c **** *  Notes
1491:RTT/SEGGER_RTT.c **** *    (1) This function is only specified for accesses to RTT buffer 0
1492:RTT/SEGGER_RTT.c **** */
1493:RTT/SEGGER_RTT.c **** int SEGGER_RTT_HasKey(void) {
 2298              		.loc 1 1493 29 is_stmt 1 view -0
 2299              		.cfi_startproc
 2300              		@ args = 0, pretend = 0, frame = 0
 2301              		@ frame_needed = 0, uses_anonymous_args = 0
 2302 0000 08B5     		push	{r3, lr}
 2303              	.LCFI26:
 2304              		.cfi_def_cfa_offset 8
 2305              		.cfi_offset 3, -8
 2306              		.cfi_offset 14, -4
1494:RTT/SEGGER_RTT.c ****   SEGGER_RTT_BUFFER_DOWN* pRing;
 2307              		.loc 1 1494 3 view .LVU697
1495:RTT/SEGGER_RTT.c ****   unsigned RdOff;
 2308              		.loc 1 1495 3 view .LVU698
1496:RTT/SEGGER_RTT.c ****   int r;
 2309              		.loc 1 1496 3 view .LVU699
 2310              	.LBB22:
1497:RTT/SEGGER_RTT.c **** 
1498:RTT/SEGGER_RTT.c ****   INIT();
 2311              		.loc 1 1498 3 view .LVU700
 2312              		.loc 1 1498 3 view .LVU701
 2313              	.LVL247:
 2314              		.loc 1 1498 3 view .LVU702
 2315              		.loc 1 1498 3 view .LVU703
 2316 0002 074B     		ldr	r3, .L151
 2317 0004 1B78     		ldrb	r3, [r3]	@ zero_extendqisi2
 2318 0006 33B1     		cbz	r3, .L150
 2319              	.L146:
 2320              		.loc 1 1498 3 discriminator 3 view .LVU704
 2321              	.LBE22:
 2322              		.loc 1 1498 9 discriminator 3 view .LVU705
1499:RTT/SEGGER_RTT.c ****   pRing = (SEGGER_RTT_BUFFER_DOWN*)((char*)&_SEGGER_RTT.aDown[0] + SEGGER_RTT_UNCACHED_OFF);  // Ac
 2323              		.loc 1 1499 3 discriminator 3 view .LVU706
 2324              	.LVL248:
1500:RTT/SEGGER_RTT.c ****   RdOff = pRing->RdOff;
 2325              		.loc 1 1500 3 discriminator 3 view .LVU707
 2326              		.loc 1 1500 9 is_stmt 0 discriminator 3 view .LVU708
 2327 0008 054B     		ldr	r3, .L151
 2328 000a 1A6F     		ldr	r2, [r3, #112]
 2329              	.LVL249:
1501:RTT/SEGGER_RTT.c ****   if (RdOff != pRing->WrOff) {
 2330              		.loc 1 1501 3 is_stmt 1 discriminator 3 view .LVU709
ARM GAS  C:\Users\wizar\AppData\Local\Temp\ccRaZdSN.s 			page 73


 2331              		.loc 1 1501 21 is_stmt 0 discriminator 3 view .LVU710
 2332 000c DB6E     		ldr	r3, [r3, #108]
 2333              		.loc 1 1501 6 discriminator 3 view .LVU711
 2334 000e 9342     		cmp	r3, r2
 2335 0010 04D0     		beq	.L148
1502:RTT/SEGGER_RTT.c ****     r = 1;
 2336              		.loc 1 1502 7 view .LVU712
 2337 0012 0120     		movs	r0, #1
 2338              	.L145:
1503:RTT/SEGGER_RTT.c ****   } else {
1504:RTT/SEGGER_RTT.c ****     r = 0;
1505:RTT/SEGGER_RTT.c ****   }
1506:RTT/SEGGER_RTT.c ****   return r;
1507:RTT/SEGGER_RTT.c **** }
 2339              		.loc 1 1507 1 view .LVU713
 2340 0014 08BD     		pop	{r3, pc}
 2341              	.LVL250:
 2342              	.L150:
 2343              	.LBB23:
1498:RTT/SEGGER_RTT.c ****   pRing = (SEGGER_RTT_BUFFER_DOWN*)((char*)&_SEGGER_RTT.aDown[0] + SEGGER_RTT_UNCACHED_OFF);  // Ac
 2344              		.loc 1 1498 3 is_stmt 1 discriminator 1 view .LVU714
 2345 0016 FFF7FEFF 		bl	_DoInit
 2346              	.LVL251:
 2347 001a F5E7     		b	.L146
 2348              	.LVL252:
 2349              	.L148:
1498:RTT/SEGGER_RTT.c ****   pRing = (SEGGER_RTT_BUFFER_DOWN*)((char*)&_SEGGER_RTT.aDown[0] + SEGGER_RTT_UNCACHED_OFF);  // Ac
 2350              		.loc 1 1498 3 is_stmt 0 discriminator 1 view .LVU715
 2351              	.LBE23:
1504:RTT/SEGGER_RTT.c ****   }
 2352              		.loc 1 1504 7 view .LVU716
 2353 001c 0020     		movs	r0, #0
 2354              	.LVL253:
1506:RTT/SEGGER_RTT.c **** }
 2355              		.loc 1 1506 3 is_stmt 1 view .LVU717
1506:RTT/SEGGER_RTT.c **** }
 2356              		.loc 1 1506 10 is_stmt 0 view .LVU718
 2357 001e F9E7     		b	.L145
 2358              	.L152:
 2359              		.align	2
 2360              	.L151:
 2361 0020 00000000 		.word	.LANCHOR1
 2362              		.cfi_endproc
 2363              	.LFE20:
 2365              		.section	.text.SEGGER_RTT_HasData,"ax",%progbits
 2366              		.align	1
 2367              		.global	SEGGER_RTT_HasData
 2368              		.syntax unified
 2369              		.thumb
 2370              		.thumb_func
 2372              	SEGGER_RTT_HasData:
 2373              	.LVL254:
 2374              	.LFB21:
1508:RTT/SEGGER_RTT.c **** 
1509:RTT/SEGGER_RTT.c **** /*********************************************************************
1510:RTT/SEGGER_RTT.c **** *
1511:RTT/SEGGER_RTT.c **** *       SEGGER_RTT_HasData
ARM GAS  C:\Users\wizar\AppData\Local\Temp\ccRaZdSN.s 			page 74


1512:RTT/SEGGER_RTT.c **** *
1513:RTT/SEGGER_RTT.c **** *  Function description
1514:RTT/SEGGER_RTT.c **** *    Check if there is data from the host in the given buffer.
1515:RTT/SEGGER_RTT.c **** *
1516:RTT/SEGGER_RTT.c **** *  Return value:
1517:RTT/SEGGER_RTT.c **** *  ==0:  No data
1518:RTT/SEGGER_RTT.c **** *  !=0:  Data in buffer
1519:RTT/SEGGER_RTT.c **** *
1520:RTT/SEGGER_RTT.c **** */
1521:RTT/SEGGER_RTT.c **** unsigned SEGGER_RTT_HasData(unsigned BufferIndex) {
 2375              		.loc 1 1521 51 is_stmt 1 view -0
 2376              		.cfi_startproc
 2377              		@ args = 0, pretend = 0, frame = 0
 2378              		@ frame_needed = 0, uses_anonymous_args = 0
 2379              		@ link register save eliminated.
1522:RTT/SEGGER_RTT.c ****   SEGGER_RTT_BUFFER_DOWN* pRing;
 2380              		.loc 1 1522 3 view .LVU720
1523:RTT/SEGGER_RTT.c ****   unsigned                v;
 2381              		.loc 1 1523 3 view .LVU721
1524:RTT/SEGGER_RTT.c **** 
1525:RTT/SEGGER_RTT.c ****   pRing = (SEGGER_RTT_BUFFER_DOWN*)((char*)&_SEGGER_RTT.aDown[BufferIndex] + SEGGER_RTT_UNCACHED_OF
 2382              		.loc 1 1525 3 view .LVU722
1526:RTT/SEGGER_RTT.c ****   v = pRing->WrOff;
 2383              		.loc 1 1526 3 view .LVU723
 2384              		.loc 1 1526 5 is_stmt 0 view .LVU724
 2385 0000 064B     		ldr	r3, .L154
 2386 0002 00EB4002 		add	r2, r0, r0, lsl #1
 2387 0006 03EBC202 		add	r2, r3, r2, lsl #3
 2388 000a D26E     		ldr	r2, [r2, #108]
 2389              	.LVL255:
1527:RTT/SEGGER_RTT.c ****   return v - pRing->RdOff;
 2390              		.loc 1 1527 3 is_stmt 1 view .LVU725
 2391              		.loc 1 1527 19 is_stmt 0 view .LVU726
 2392 000c 00EB4000 		add	r0, r0, r0, lsl #1
 2393              	.LVL256:
 2394              		.loc 1 1527 19 view .LVU727
 2395 0010 03EBC000 		add	r0, r3, r0, lsl #3
 2396 0014 006F     		ldr	r0, [r0, #112]
1528:RTT/SEGGER_RTT.c **** }
 2397              		.loc 1 1528 1 view .LVU728
 2398 0016 101A     		subs	r0, r2, r0
 2399 0018 7047     		bx	lr
 2400              	.L155:
 2401 001a 00BF     		.align	2
 2402              	.L154:
 2403 001c 00000000 		.word	.LANCHOR1
 2404              		.cfi_endproc
 2405              	.LFE21:
 2407              		.section	.text.SEGGER_RTT_HasDataUp,"ax",%progbits
 2408              		.align	1
 2409              		.global	SEGGER_RTT_HasDataUp
 2410              		.syntax unified
 2411              		.thumb
 2412              		.thumb_func
 2414              	SEGGER_RTT_HasDataUp:
 2415              	.LVL257:
 2416              	.LFB22:
ARM GAS  C:\Users\wizar\AppData\Local\Temp\ccRaZdSN.s 			page 75


1529:RTT/SEGGER_RTT.c **** 
1530:RTT/SEGGER_RTT.c **** /*********************************************************************
1531:RTT/SEGGER_RTT.c **** *
1532:RTT/SEGGER_RTT.c **** *       SEGGER_RTT_HasDataUp
1533:RTT/SEGGER_RTT.c **** *
1534:RTT/SEGGER_RTT.c **** *  Function description
1535:RTT/SEGGER_RTT.c **** *    Check if there is data remaining to be sent in the given buffer.
1536:RTT/SEGGER_RTT.c **** *
1537:RTT/SEGGER_RTT.c **** *  Return value:
1538:RTT/SEGGER_RTT.c **** *  ==0:  No data
1539:RTT/SEGGER_RTT.c **** *  !=0:  Data in buffer
1540:RTT/SEGGER_RTT.c **** *
1541:RTT/SEGGER_RTT.c **** */
1542:RTT/SEGGER_RTT.c **** unsigned SEGGER_RTT_HasDataUp(unsigned BufferIndex) {
 2417              		.loc 1 1542 53 is_stmt 1 view -0
 2418              		.cfi_startproc
 2419              		@ args = 0, pretend = 0, frame = 0
 2420              		@ frame_needed = 0, uses_anonymous_args = 0
 2421              		@ link register save eliminated.
1543:RTT/SEGGER_RTT.c ****   SEGGER_RTT_BUFFER_UP* pRing;
 2422              		.loc 1 1543 3 view .LVU730
1544:RTT/SEGGER_RTT.c ****   unsigned                v;
 2423              		.loc 1 1544 3 view .LVU731
1545:RTT/SEGGER_RTT.c **** 
1546:RTT/SEGGER_RTT.c ****   pRing = (SEGGER_RTT_BUFFER_UP*)((char*)&_SEGGER_RTT.aUp[BufferIndex] + SEGGER_RTT_UNCACHED_OFF); 
 2424              		.loc 1 1546 3 view .LVU732
1547:RTT/SEGGER_RTT.c ****   v = pRing->RdOff;
 2425              		.loc 1 1547 3 view .LVU733
 2426              		.loc 1 1547 5 is_stmt 0 view .LVU734
 2427 0000 064B     		ldr	r3, .L157
 2428 0002 00EB4002 		add	r2, r0, r0, lsl #1
 2429 0006 03EBC202 		add	r2, r3, r2, lsl #3
 2430 000a 926A     		ldr	r2, [r2, #40]
 2431              	.LVL258:
1548:RTT/SEGGER_RTT.c ****   return pRing->WrOff - v;
 2432              		.loc 1 1548 3 is_stmt 1 view .LVU735
 2433              		.loc 1 1548 15 is_stmt 0 view .LVU736
 2434 000c 00EB4000 		add	r0, r0, r0, lsl #1
 2435              	.LVL259:
 2436              		.loc 1 1548 15 view .LVU737
 2437 0010 03EBC000 		add	r0, r3, r0, lsl #3
 2438 0014 406A     		ldr	r0, [r0, #36]
1549:RTT/SEGGER_RTT.c **** }
 2439              		.loc 1 1549 1 view .LVU738
 2440 0016 801A     		subs	r0, r0, r2
 2441 0018 7047     		bx	lr
 2442              	.L158:
 2443 001a 00BF     		.align	2
 2444              	.L157:
 2445 001c 00000000 		.word	.LANCHOR1
 2446              		.cfi_endproc
 2447              	.LFE22:
 2449              		.section	.text.SEGGER_RTT_AllocDownBuffer,"ax",%progbits
 2450              		.align	1
 2451              		.global	SEGGER_RTT_AllocDownBuffer
 2452              		.syntax unified
 2453              		.thumb
ARM GAS  C:\Users\wizar\AppData\Local\Temp\ccRaZdSN.s 			page 76


 2454              		.thumb_func
 2456              	SEGGER_RTT_AllocDownBuffer:
 2457              	.LVL260:
 2458              	.LFB23:
1550:RTT/SEGGER_RTT.c **** 
1551:RTT/SEGGER_RTT.c **** /*********************************************************************
1552:RTT/SEGGER_RTT.c **** *
1553:RTT/SEGGER_RTT.c **** *       SEGGER_RTT_AllocDownBuffer
1554:RTT/SEGGER_RTT.c **** *
1555:RTT/SEGGER_RTT.c **** *  Function description
1556:RTT/SEGGER_RTT.c **** *    Run-time configuration of the next down-buffer (H->T).
1557:RTT/SEGGER_RTT.c **** *    The next buffer, which is not used yet is configured.
1558:RTT/SEGGER_RTT.c **** *    This includes: Buffer address, size, name, flags, ...
1559:RTT/SEGGER_RTT.c **** *
1560:RTT/SEGGER_RTT.c **** *  Parameters
1561:RTT/SEGGER_RTT.c **** *    sName        Pointer to a constant name string.
1562:RTT/SEGGER_RTT.c **** *    pBuffer      Pointer to a buffer to be used.
1563:RTT/SEGGER_RTT.c **** *    BufferSize   Size of the buffer.
1564:RTT/SEGGER_RTT.c **** *    Flags        Operating modes. Define behavior if buffer is full (not enough space for entire m
1565:RTT/SEGGER_RTT.c **** *                 Flags[31:24] are used for validity check and must be zero. Flags[23:2] are reserv
1566:RTT/SEGGER_RTT.c **** *
1567:RTT/SEGGER_RTT.c **** *  Return value
1568:RTT/SEGGER_RTT.c **** *    >= 0 - O.K. Buffer Index
1569:RTT/SEGGER_RTT.c **** *     < 0 - Error
1570:RTT/SEGGER_RTT.c **** */
1571:RTT/SEGGER_RTT.c **** int SEGGER_RTT_AllocDownBuffer(const char* sName, void* pBuffer, unsigned BufferSize, unsigned Flag
 2459              		.loc 1 1571 103 is_stmt 1 view -0
 2460              		.cfi_startproc
 2461              		@ args = 0, pretend = 0, frame = 0
 2462              		@ frame_needed = 0, uses_anonymous_args = 0
 2463              		.loc 1 1571 103 is_stmt 0 view .LVU740
 2464 0000 2DE9F041 		push	{r4, r5, r6, r7, r8, lr}
 2465              	.LCFI27:
 2466              		.cfi_def_cfa_offset 24
 2467              		.cfi_offset 4, -24
 2468              		.cfi_offset 5, -20
 2469              		.cfi_offset 6, -16
 2470              		.cfi_offset 7, -12
 2471              		.cfi_offset 8, -8
 2472              		.cfi_offset 14, -4
 2473 0004 8046     		mov	r8, r0
 2474 0006 0F46     		mov	r7, r1
 2475 0008 1646     		mov	r6, r2
 2476 000a 1D46     		mov	r5, r3
1572:RTT/SEGGER_RTT.c ****   int BufferIndex;
 2477              		.loc 1 1572 3 is_stmt 1 view .LVU741
1573:RTT/SEGGER_RTT.c ****   volatile SEGGER_RTT_CB* pRTTCB;
 2478              		.loc 1 1573 3 view .LVU742
 2479              	.LBB24:
1574:RTT/SEGGER_RTT.c **** 
1575:RTT/SEGGER_RTT.c ****   INIT();
 2480              		.loc 1 1575 3 view .LVU743
 2481              		.loc 1 1575 3 view .LVU744
 2482              	.LVL261:
 2483              		.loc 1 1575 3 view .LVU745
 2484              		.loc 1 1575 3 view .LVU746
 2485 000c 184B     		ldr	r3, .L167
ARM GAS  C:\Users\wizar\AppData\Local\Temp\ccRaZdSN.s 			page 77


 2486              	.LVL262:
 2487              		.loc 1 1575 3 is_stmt 0 view .LVU747
 2488 000e 1B78     		ldrb	r3, [r3]	@ zero_extendqisi2
 2489 0010 3BB3     		cbz	r3, .L166
 2490              	.LVL263:
 2491              	.L160:
 2492              		.loc 1 1575 3 is_stmt 1 discriminator 3 view .LVU748
 2493              	.LBE24:
 2494              		.loc 1 1575 9 discriminator 3 view .LVU749
 2495              	.LBB25:
1576:RTT/SEGGER_RTT.c ****   SEGGER_RTT_LOCK();
 2496              		.loc 1 1576 3 discriminator 3 view .LVU750
 2497              		.loc 1 1576 3 discriminator 3 view .LVU751
 2498              		.syntax unified
 2499              	@ 1576 "RTT/SEGGER_RTT.c" 1
 2500 0012 EFF31182 		mrs   r2, basepri  
 2501 0016 4FF02001 		mov   r1, #32       
 2502 001a 81F31188 		msr   basepri, r1  
 2503              		
 2504              	@ 0 "" 2
 2505              	.LVL264:
 2506              		.loc 1 1576 20 discriminator 3 view .LVU752
1577:RTT/SEGGER_RTT.c ****   pRTTCB = (volatile SEGGER_RTT_CB*)((unsigned char*)&_SEGGER_RTT + SEGGER_RTT_UNCACHED_OFF);  // A
 2507              		.loc 1 1577 3 discriminator 3 view .LVU753
1578:RTT/SEGGER_RTT.c ****   BufferIndex = 0;
 2508              		.loc 1 1578 3 discriminator 3 view .LVU754
 2509              		.loc 1 1578 15 is_stmt 0 discriminator 3 view .LVU755
 2510              		.thumb
 2511              		.syntax unified
 2512 001e 0020     		movs	r0, #0
 2513              	.LVL265:
 2514              	.L162:
1579:RTT/SEGGER_RTT.c ****   do {
 2515              		.loc 1 1579 3 is_stmt 1 view .LVU756
1580:RTT/SEGGER_RTT.c ****     if (pRTTCB->aDown[BufferIndex].pBuffer == NULL) {
 2516              		.loc 1 1580 5 view .LVU757
 2517              		.loc 1 1580 35 is_stmt 0 view .LVU758
 2518 0020 00EB400C 		add	ip, r0, r0, lsl #1
 2519 0024 124C     		ldr	r4, .L167
 2520 0026 04EBCC0C 		add	ip, r4, ip, lsl #3
 2521 002a DCF86430 		ldr	r3, [ip, #100]
 2522              		.loc 1 1580 8 view .LVU759
 2523 002e 1BB1     		cbz	r3, .L161
1581:RTT/SEGGER_RTT.c ****       break;
1582:RTT/SEGGER_RTT.c ****     }
1583:RTT/SEGGER_RTT.c ****     BufferIndex++;
 2524              		.loc 1 1583 5 is_stmt 1 view .LVU760
 2525              		.loc 1 1583 16 is_stmt 0 view .LVU761
 2526 0030 0130     		adds	r0, r0, #1
 2527              	.LVL266:
1584:RTT/SEGGER_RTT.c ****   } while (BufferIndex < pRTTCB->MaxNumDownBuffers);
 2528              		.loc 1 1584 11 is_stmt 1 view .LVU762
 2529              		.loc 1 1584 32 is_stmt 0 view .LVU763
 2530 0032 6369     		ldr	r3, [r4, #20]
 2531              		.loc 1 1584 3 view .LVU764
 2532 0034 8342     		cmp	r3, r0
 2533 0036 F3DC     		bgt	.L162
ARM GAS  C:\Users\wizar\AppData\Local\Temp\ccRaZdSN.s 			page 78


 2534              	.L161:
1585:RTT/SEGGER_RTT.c ****   if (BufferIndex < pRTTCB->MaxNumDownBuffers) {
 2535              		.loc 1 1585 3 is_stmt 1 view .LVU765
 2536              		.loc 1 1585 27 is_stmt 0 view .LVU766
 2537 0038 0D4B     		ldr	r3, .L167
 2538 003a 5B69     		ldr	r3, [r3, #20]
 2539              		.loc 1 1585 6 view .LVU767
 2540 003c 8342     		cmp	r3, r0
 2541 003e 13DD     		ble	.L164
1586:RTT/SEGGER_RTT.c ****     pRTTCB->aDown[BufferIndex].sName        = sName;
 2542              		.loc 1 1586 5 is_stmt 1 view .LVU768
 2543              		.loc 1 1586 45 is_stmt 0 view .LVU769
 2544 0040 00EB4003 		add	r3, r0, r0, lsl #1
 2545 0044 0A49     		ldr	r1, .L167
 2546 0046 01EBC303 		add	r3, r1, r3, lsl #3
 2547 004a C3F86080 		str	r8, [r3, #96]
1587:RTT/SEGGER_RTT.c ****     pRTTCB->aDown[BufferIndex].pBuffer      = (char*)pBuffer;
 2548              		.loc 1 1587 5 is_stmt 1 view .LVU770
 2549              		.loc 1 1587 45 is_stmt 0 view .LVU771
 2550 004e 5F66     		str	r7, [r3, #100]
1588:RTT/SEGGER_RTT.c ****     pRTTCB->aDown[BufferIndex].SizeOfBuffer = BufferSize;
 2551              		.loc 1 1588 5 is_stmt 1 view .LVU772
 2552              		.loc 1 1588 45 is_stmt 0 view .LVU773
 2553 0050 9E66     		str	r6, [r3, #104]
1589:RTT/SEGGER_RTT.c ****     pRTTCB->aDown[BufferIndex].RdOff        = 0u;
 2554              		.loc 1 1589 5 is_stmt 1 view .LVU774
 2555              		.loc 1 1589 45 is_stmt 0 view .LVU775
 2556 0052 0021     		movs	r1, #0
 2557 0054 1967     		str	r1, [r3, #112]
1590:RTT/SEGGER_RTT.c ****     pRTTCB->aDown[BufferIndex].WrOff        = 0u;
 2558              		.loc 1 1590 5 is_stmt 1 view .LVU776
 2559              		.loc 1 1590 45 is_stmt 0 view .LVU777
 2560 0056 D966     		str	r1, [r3, #108]
1591:RTT/SEGGER_RTT.c ****     pRTTCB->aDown[BufferIndex].Flags        = Flags;
 2561              		.loc 1 1591 5 is_stmt 1 view .LVU778
 2562              		.loc 1 1591 45 is_stmt 0 view .LVU779
 2563 0058 5D67     		str	r5, [r3, #116]
1592:RTT/SEGGER_RTT.c ****     RTT__DMB();                     // Force data write to be complete before writing the <WrOff>, 
 2564              		.loc 1 1592 15 is_stmt 1 view .LVU780
 2565              	.LVL267:
 2566              	.L163:
1593:RTT/SEGGER_RTT.c ****   } else {
1594:RTT/SEGGER_RTT.c ****     BufferIndex = -1;
1595:RTT/SEGGER_RTT.c ****   }
1596:RTT/SEGGER_RTT.c ****   SEGGER_RTT_UNLOCK();
 2567              		.loc 1 1596 3 view .LVU781
 2568              		.syntax unified
 2569              	@ 1596 "RTT/SEGGER_RTT.c" 1
 2570 005a 82F31188 		msr   basepri, r2  
 2571              		
 2572              	@ 0 "" 2
 2573              		.thumb
 2574              		.syntax unified
 2575              	.LBE25:
 2576              		.loc 1 1596 22 view .LVU782
1597:RTT/SEGGER_RTT.c ****   return BufferIndex;
 2577              		.loc 1 1597 3 view .LVU783
ARM GAS  C:\Users\wizar\AppData\Local\Temp\ccRaZdSN.s 			page 79


1598:RTT/SEGGER_RTT.c **** }
 2578              		.loc 1 1598 1 is_stmt 0 view .LVU784
 2579 005e BDE8F081 		pop	{r4, r5, r6, r7, r8, pc}
 2580              	.LVL268:
 2581              	.L166:
 2582              	.LBB26:
1575:RTT/SEGGER_RTT.c ****   SEGGER_RTT_LOCK();
 2583              		.loc 1 1575 3 is_stmt 1 discriminator 1 view .LVU785
 2584 0062 FFF7FEFF 		bl	_DoInit
 2585              	.LVL269:
1575:RTT/SEGGER_RTT.c ****   SEGGER_RTT_LOCK();
 2586              		.loc 1 1575 3 is_stmt 0 discriminator 1 view .LVU786
 2587 0066 D4E7     		b	.L160
 2588              	.LVL270:
 2589              	.L164:
1575:RTT/SEGGER_RTT.c ****   SEGGER_RTT_LOCK();
 2590              		.loc 1 1575 3 discriminator 1 view .LVU787
 2591              	.LBE26:
 2592              	.LBB27:
1594:RTT/SEGGER_RTT.c ****   }
 2593              		.loc 1 1594 17 view .LVU788
 2594 0068 4FF0FF30 		mov	r0, #-1
 2595              	.LVL271:
1594:RTT/SEGGER_RTT.c ****   }
 2596              		.loc 1 1594 17 view .LVU789
 2597 006c F5E7     		b	.L163
 2598              	.L168:
 2599 006e 00BF     		.align	2
 2600              	.L167:
 2601 0070 00000000 		.word	.LANCHOR1
 2602              	.LBE27:
 2603              		.cfi_endproc
 2604              	.LFE23:
 2606              		.section	.text.SEGGER_RTT_AllocUpBuffer,"ax",%progbits
 2607              		.align	1
 2608              		.global	SEGGER_RTT_AllocUpBuffer
 2609              		.syntax unified
 2610              		.thumb
 2611              		.thumb_func
 2613              	SEGGER_RTT_AllocUpBuffer:
 2614              	.LVL272:
 2615              	.LFB24:
1599:RTT/SEGGER_RTT.c **** 
1600:RTT/SEGGER_RTT.c **** /*********************************************************************
1601:RTT/SEGGER_RTT.c **** *
1602:RTT/SEGGER_RTT.c **** *       SEGGER_RTT_AllocUpBuffer
1603:RTT/SEGGER_RTT.c **** *
1604:RTT/SEGGER_RTT.c **** *  Function description
1605:RTT/SEGGER_RTT.c **** *    Run-time configuration of the next up-buffer (T->H).
1606:RTT/SEGGER_RTT.c **** *    The next buffer, which is not used yet is configured.
1607:RTT/SEGGER_RTT.c **** *    This includes: Buffer address, size, name, flags, ...
1608:RTT/SEGGER_RTT.c **** *
1609:RTT/SEGGER_RTT.c **** *  Parameters
1610:RTT/SEGGER_RTT.c **** *    sName        Pointer to a constant name string.
1611:RTT/SEGGER_RTT.c **** *    pBuffer      Pointer to a buffer to be used.
1612:RTT/SEGGER_RTT.c **** *    BufferSize   Size of the buffer.
1613:RTT/SEGGER_RTT.c **** *    Flags        Operating modes. Define behavior if buffer is full (not enough space for entire m
ARM GAS  C:\Users\wizar\AppData\Local\Temp\ccRaZdSN.s 			page 80


1614:RTT/SEGGER_RTT.c **** *                 Flags[31:24] are used for validity check and must be zero. Flags[23:2] are reserv
1615:RTT/SEGGER_RTT.c **** *
1616:RTT/SEGGER_RTT.c **** *  Return value
1617:RTT/SEGGER_RTT.c **** *    >= 0 - O.K. Buffer Index
1618:RTT/SEGGER_RTT.c **** *     < 0 - Error
1619:RTT/SEGGER_RTT.c **** */
1620:RTT/SEGGER_RTT.c **** int SEGGER_RTT_AllocUpBuffer(const char* sName, void* pBuffer, unsigned BufferSize, unsigned Flags)
 2616              		.loc 1 1620 101 is_stmt 1 view -0
 2617              		.cfi_startproc
 2618              		@ args = 0, pretend = 0, frame = 0
 2619              		@ frame_needed = 0, uses_anonymous_args = 0
 2620              		.loc 1 1620 101 is_stmt 0 view .LVU791
 2621 0000 F8B5     		push	{r3, r4, r5, r6, r7, lr}
 2622              	.LCFI28:
 2623              		.cfi_def_cfa_offset 24
 2624              		.cfi_offset 3, -24
 2625              		.cfi_offset 4, -20
 2626              		.cfi_offset 5, -16
 2627              		.cfi_offset 6, -12
 2628              		.cfi_offset 7, -8
 2629              		.cfi_offset 14, -4
 2630 0002 0746     		mov	r7, r0
 2631 0004 0E46     		mov	r6, r1
 2632 0006 1546     		mov	r5, r2
 2633 0008 1C46     		mov	r4, r3
1621:RTT/SEGGER_RTT.c ****   int BufferIndex;
 2634              		.loc 1 1621 3 is_stmt 1 view .LVU792
1622:RTT/SEGGER_RTT.c ****   volatile SEGGER_RTT_CB* pRTTCB;
 2635              		.loc 1 1622 3 view .LVU793
 2636              	.LBB28:
1623:RTT/SEGGER_RTT.c **** 
1624:RTT/SEGGER_RTT.c ****   INIT();
 2637              		.loc 1 1624 3 view .LVU794
 2638              		.loc 1 1624 3 view .LVU795
 2639              	.LVL273:
 2640              		.loc 1 1624 3 view .LVU796
 2641              		.loc 1 1624 3 view .LVU797
 2642 000a 1E4B     		ldr	r3, .L177
 2643              	.LVL274:
 2644              		.loc 1 1624 3 is_stmt 0 view .LVU798
 2645 000c 1B78     		ldrb	r3, [r3]	@ zero_extendqisi2
 2646 000e 002B     		cmp	r3, #0
 2647 0010 32D0     		beq	.L176
 2648              	.LVL275:
 2649              	.L170:
 2650              		.loc 1 1624 3 is_stmt 1 discriminator 3 view .LVU799
 2651              	.LBE28:
 2652              		.loc 1 1624 9 discriminator 3 view .LVU800
 2653              	.LBB29:
1625:RTT/SEGGER_RTT.c ****   SEGGER_RTT_LOCK();
 2654              		.loc 1 1625 3 discriminator 3 view .LVU801
 2655              		.loc 1 1625 3 discriminator 3 view .LVU802
 2656              		.syntax unified
 2657              	@ 1625 "RTT/SEGGER_RTT.c" 1
 2658 0012 EFF31182 		mrs   r2, basepri  
 2659 0016 4FF02001 		mov   r1, #32       
 2660 001a 81F31188 		msr   basepri, r1  
ARM GAS  C:\Users\wizar\AppData\Local\Temp\ccRaZdSN.s 			page 81


 2661              		
 2662              	@ 0 "" 2
 2663              	.LVL276:
 2664              		.loc 1 1625 20 discriminator 3 view .LVU803
1626:RTT/SEGGER_RTT.c ****   pRTTCB = (volatile SEGGER_RTT_CB*)((unsigned char*)&_SEGGER_RTT + SEGGER_RTT_UNCACHED_OFF);  // A
 2665              		.loc 1 1626 3 discriminator 3 view .LVU804
1627:RTT/SEGGER_RTT.c ****   BufferIndex = 0;
 2666              		.loc 1 1627 3 discriminator 3 view .LVU805
 2667              		.loc 1 1627 15 is_stmt 0 discriminator 3 view .LVU806
 2668              		.thumb
 2669              		.syntax unified
 2670 001e 0020     		movs	r0, #0
 2671              	.LVL277:
 2672              	.L172:
1628:RTT/SEGGER_RTT.c ****   do {
 2673              		.loc 1 1628 3 is_stmt 1 view .LVU807
1629:RTT/SEGGER_RTT.c ****     if (pRTTCB->aUp[BufferIndex].pBuffer == NULL) {
 2674              		.loc 1 1629 5 view .LVU808
 2675              		.loc 1 1629 33 is_stmt 0 view .LVU809
 2676 0020 00F1010C 		add	ip, r0, #1
 2677 0024 0CEB4C0C 		add	ip, ip, ip, lsl #1
 2678 0028 164B     		ldr	r3, .L177
 2679 002a 03EBCC0C 		add	ip, r3, ip, lsl #3
 2680 002e DCF80430 		ldr	r3, [ip, #4]
 2681              		.loc 1 1629 8 view .LVU810
 2682 0032 23B1     		cbz	r3, .L171
1630:RTT/SEGGER_RTT.c ****       break;
1631:RTT/SEGGER_RTT.c ****     }
1632:RTT/SEGGER_RTT.c ****     BufferIndex++;
 2683              		.loc 1 1632 5 is_stmt 1 view .LVU811
 2684              		.loc 1 1632 16 is_stmt 0 view .LVU812
 2685 0034 0130     		adds	r0, r0, #1
 2686              	.LVL278:
1633:RTT/SEGGER_RTT.c ****   } while (BufferIndex < pRTTCB->MaxNumUpBuffers);
 2687              		.loc 1 1633 11 is_stmt 1 view .LVU813
 2688              		.loc 1 1633 32 is_stmt 0 view .LVU814
 2689 0036 134B     		ldr	r3, .L177
 2690 0038 1B69     		ldr	r3, [r3, #16]
 2691              		.loc 1 1633 3 view .LVU815
 2692 003a 8342     		cmp	r3, r0
 2693 003c F0DC     		bgt	.L172
 2694              	.L171:
1634:RTT/SEGGER_RTT.c ****   if (BufferIndex < pRTTCB->MaxNumUpBuffers) {
 2695              		.loc 1 1634 3 is_stmt 1 view .LVU816
 2696              		.loc 1 1634 27 is_stmt 0 view .LVU817
 2697 003e 114B     		ldr	r3, .L177
 2698 0040 1B69     		ldr	r3, [r3, #16]
 2699              		.loc 1 1634 6 view .LVU818
 2700 0042 8342     		cmp	r3, r0
 2701 0044 1BDD     		ble	.L174
1635:RTT/SEGGER_RTT.c ****     pRTTCB->aUp[BufferIndex].sName        = sName;
 2702              		.loc 1 1635 5 is_stmt 1 view .LVU819
 2703              		.loc 1 1635 43 is_stmt 0 view .LVU820
 2704 0046 0F4B     		ldr	r3, .L177
 2705 0048 411C     		adds	r1, r0, #1
 2706 004a 01EB410C 		add	ip, r1, r1, lsl #1
 2707 004e 4FEACC0C 		lsl	ip, ip, #3
ARM GAS  C:\Users\wizar\AppData\Local\Temp\ccRaZdSN.s 			page 82


 2708 0052 43F80C70 		str	r7, [r3, ip]
1636:RTT/SEGGER_RTT.c ****     pRTTCB->aUp[BufferIndex].pBuffer      = (char*)pBuffer;
 2709              		.loc 1 1636 5 is_stmt 1 view .LVU821
 2710              		.loc 1 1636 43 is_stmt 0 view .LVU822
 2711 0056 01EB4101 		add	r1, r1, r1, lsl #1
 2712 005a 03EBC101 		add	r1, r3, r1, lsl #3
 2713 005e 4E60     		str	r6, [r1, #4]
1637:RTT/SEGGER_RTT.c ****     pRTTCB->aUp[BufferIndex].SizeOfBuffer = BufferSize;
 2714              		.loc 1 1637 5 is_stmt 1 view .LVU823
 2715              		.loc 1 1637 43 is_stmt 0 view .LVU824
 2716 0060 00EB4001 		add	r1, r0, r0, lsl #1
 2717 0064 03EBC103 		add	r3, r3, r1, lsl #3
 2718 0068 1D62     		str	r5, [r3, #32]
1638:RTT/SEGGER_RTT.c ****     pRTTCB->aUp[BufferIndex].RdOff        = 0u;
 2719              		.loc 1 1638 5 is_stmt 1 view .LVU825
 2720              		.loc 1 1638 43 is_stmt 0 view .LVU826
 2721 006a 0021     		movs	r1, #0
 2722 006c 9962     		str	r1, [r3, #40]
1639:RTT/SEGGER_RTT.c ****     pRTTCB->aUp[BufferIndex].WrOff        = 0u;
 2723              		.loc 1 1639 5 is_stmt 1 view .LVU827
 2724              		.loc 1 1639 43 is_stmt 0 view .LVU828
 2725 006e 5962     		str	r1, [r3, #36]
1640:RTT/SEGGER_RTT.c ****     pRTTCB->aUp[BufferIndex].Flags        = Flags;
 2726              		.loc 1 1640 5 is_stmt 1 view .LVU829
 2727              		.loc 1 1640 43 is_stmt 0 view .LVU830
 2728 0070 DC62     		str	r4, [r3, #44]
1641:RTT/SEGGER_RTT.c ****     RTT__DMB();                     // Force data write to be complete before writing the <WrOff>, 
 2729              		.loc 1 1641 15 is_stmt 1 view .LVU831
 2730              	.LVL279:
 2731              	.L173:
1642:RTT/SEGGER_RTT.c ****   } else {
1643:RTT/SEGGER_RTT.c ****     BufferIndex = -1;
1644:RTT/SEGGER_RTT.c ****   }
1645:RTT/SEGGER_RTT.c ****   SEGGER_RTT_UNLOCK();
 2732              		.loc 1 1645 3 view .LVU832
 2733              		.syntax unified
 2734              	@ 1645 "RTT/SEGGER_RTT.c" 1
 2735 0072 82F31188 		msr   basepri, r2  
 2736              		
 2737              	@ 0 "" 2
 2738              		.thumb
 2739              		.syntax unified
 2740              	.LBE29:
 2741              		.loc 1 1645 22 view .LVU833
1646:RTT/SEGGER_RTT.c ****   return BufferIndex;
 2742              		.loc 1 1646 3 view .LVU834
1647:RTT/SEGGER_RTT.c **** }
 2743              		.loc 1 1647 1 is_stmt 0 view .LVU835
 2744 0076 F8BD     		pop	{r3, r4, r5, r6, r7, pc}
 2745              	.LVL280:
 2746              	.L176:
 2747              	.LBB30:
1624:RTT/SEGGER_RTT.c ****   SEGGER_RTT_LOCK();
 2748              		.loc 1 1624 3 is_stmt 1 discriminator 1 view .LVU836
 2749 0078 FFF7FEFF 		bl	_DoInit
 2750              	.LVL281:
1624:RTT/SEGGER_RTT.c ****   SEGGER_RTT_LOCK();
ARM GAS  C:\Users\wizar\AppData\Local\Temp\ccRaZdSN.s 			page 83


 2751              		.loc 1 1624 3 is_stmt 0 discriminator 1 view .LVU837
 2752 007c C9E7     		b	.L170
 2753              	.LVL282:
 2754              	.L174:
1624:RTT/SEGGER_RTT.c ****   SEGGER_RTT_LOCK();
 2755              		.loc 1 1624 3 discriminator 1 view .LVU838
 2756              	.LBE30:
 2757              	.LBB31:
1643:RTT/SEGGER_RTT.c ****   }
 2758              		.loc 1 1643 17 view .LVU839
 2759 007e 4FF0FF30 		mov	r0, #-1
 2760              	.LVL283:
1643:RTT/SEGGER_RTT.c ****   }
 2761              		.loc 1 1643 17 view .LVU840
 2762 0082 F6E7     		b	.L173
 2763              	.L178:
 2764              		.align	2
 2765              	.L177:
 2766 0084 00000000 		.word	.LANCHOR1
 2767              	.LBE31:
 2768              		.cfi_endproc
 2769              	.LFE24:
 2771              		.section	.text.SEGGER_RTT_ConfigUpBuffer,"ax",%progbits
 2772              		.align	1
 2773              		.global	SEGGER_RTT_ConfigUpBuffer
 2774              		.syntax unified
 2775              		.thumb
 2776              		.thumb_func
 2778              	SEGGER_RTT_ConfigUpBuffer:
 2779              	.LVL284:
 2780              	.LFB25:
1648:RTT/SEGGER_RTT.c **** 
1649:RTT/SEGGER_RTT.c **** /*********************************************************************
1650:RTT/SEGGER_RTT.c **** *
1651:RTT/SEGGER_RTT.c **** *       SEGGER_RTT_ConfigUpBuffer
1652:RTT/SEGGER_RTT.c **** *
1653:RTT/SEGGER_RTT.c **** *  Function description
1654:RTT/SEGGER_RTT.c **** *    Run-time configuration of a specific up-buffer (T->H).
1655:RTT/SEGGER_RTT.c **** *    Buffer to be configured is specified by index.
1656:RTT/SEGGER_RTT.c **** *    This includes: Buffer address, size, name, flags, ...
1657:RTT/SEGGER_RTT.c **** *
1658:RTT/SEGGER_RTT.c **** *  Parameters
1659:RTT/SEGGER_RTT.c **** *    BufferIndex  Index of the buffer to configure.
1660:RTT/SEGGER_RTT.c **** *    sName        Pointer to a constant name string.
1661:RTT/SEGGER_RTT.c **** *    pBuffer      Pointer to a buffer to be used.
1662:RTT/SEGGER_RTT.c **** *    BufferSize   Size of the buffer.
1663:RTT/SEGGER_RTT.c **** *    Flags        Operating modes. Define behavior if buffer is full (not enough space for entire m
1664:RTT/SEGGER_RTT.c **** *                 Flags[31:24] are used for validity check and must be zero. Flags[23:2] are reserv
1665:RTT/SEGGER_RTT.c **** *
1666:RTT/SEGGER_RTT.c **** *  Return value
1667:RTT/SEGGER_RTT.c **** *    >= 0 - O.K.
1668:RTT/SEGGER_RTT.c **** *     < 0 - Error
1669:RTT/SEGGER_RTT.c **** *
1670:RTT/SEGGER_RTT.c **** *  Additional information
1671:RTT/SEGGER_RTT.c **** *    Buffer 0 is configured on compile-time.
1672:RTT/SEGGER_RTT.c **** *    May only be called once per buffer.
1673:RTT/SEGGER_RTT.c **** *    Buffer name and flags can be reconfigured using the appropriate functions.
ARM GAS  C:\Users\wizar\AppData\Local\Temp\ccRaZdSN.s 			page 84


1674:RTT/SEGGER_RTT.c **** */
1675:RTT/SEGGER_RTT.c **** int SEGGER_RTT_ConfigUpBuffer(unsigned BufferIndex, const char* sName, void* pBuffer, unsigned Buff
 2781              		.loc 1 1675 124 is_stmt 1 view -0
 2782              		.cfi_startproc
 2783              		@ args = 4, pretend = 0, frame = 0
 2784              		@ frame_needed = 0, uses_anonymous_args = 0
 2785              		.loc 1 1675 124 is_stmt 0 view .LVU842
 2786 0000 2DE9F041 		push	{r4, r5, r6, r7, r8, lr}
 2787              	.LCFI29:
 2788              		.cfi_def_cfa_offset 24
 2789              		.cfi_offset 4, -24
 2790              		.cfi_offset 5, -20
 2791              		.cfi_offset 6, -16
 2792              		.cfi_offset 7, -12
 2793              		.cfi_offset 8, -8
 2794              		.cfi_offset 14, -4
 2795 0004 0446     		mov	r4, r0
 2796 0006 8846     		mov	r8, r1
 2797 0008 1746     		mov	r7, r2
 2798 000a 1E46     		mov	r6, r3
1676:RTT/SEGGER_RTT.c ****   int r;
 2799              		.loc 1 1676 3 is_stmt 1 view .LVU843
1677:RTT/SEGGER_RTT.c ****   volatile SEGGER_RTT_CB* pRTTCB;
 2800              		.loc 1 1677 3 view .LVU844
1678:RTT/SEGGER_RTT.c ****   volatile SEGGER_RTT_BUFFER_UP* pUp;
 2801              		.loc 1 1678 3 view .LVU845
 2802              	.LBB32:
1679:RTT/SEGGER_RTT.c **** 
1680:RTT/SEGGER_RTT.c ****   INIT();
 2803              		.loc 1 1680 3 view .LVU846
 2804              		.loc 1 1680 3 view .LVU847
 2805              	.LVL285:
 2806              		.loc 1 1680 3 view .LVU848
 2807              		.loc 1 1680 3 view .LVU849
 2808 000c 184B     		ldr	r3, .L186
 2809              	.LVL286:
 2810              		.loc 1 1680 3 is_stmt 0 view .LVU850
 2811 000e 1B78     		ldrb	r3, [r3]	@ zero_extendqisi2
 2812 0010 43B3     		cbz	r3, .L185
 2813              	.LVL287:
 2814              	.L180:
 2815              		.loc 1 1680 3 is_stmt 1 discriminator 3 view .LVU851
 2816              	.LBE32:
 2817              		.loc 1 1680 9 discriminator 3 view .LVU852
1681:RTT/SEGGER_RTT.c ****   pRTTCB = (volatile SEGGER_RTT_CB*)((unsigned char*)&_SEGGER_RTT + SEGGER_RTT_UNCACHED_OFF);  // A
 2818              		.loc 1 1681 3 discriminator 3 view .LVU853
1682:RTT/SEGGER_RTT.c ****   if (BufferIndex < SEGGER_RTT_MAX_NUM_UP_BUFFERS) {
 2819              		.loc 1 1682 3 discriminator 3 view .LVU854
 2820              		.loc 1 1682 6 is_stmt 0 discriminator 3 view .LVU855
 2821 0012 022C     		cmp	r4, #2
 2822 0014 29D8     		bhi	.L183
 2823              	.LBB33:
1683:RTT/SEGGER_RTT.c ****     SEGGER_RTT_LOCK();
 2824              		.loc 1 1683 5 is_stmt 1 view .LVU856
 2825              		.loc 1 1683 5 view .LVU857
 2826              		.syntax unified
 2827              	@ 1683 "RTT/SEGGER_RTT.c" 1
ARM GAS  C:\Users\wizar\AppData\Local\Temp\ccRaZdSN.s 			page 85


 2828 0016 EFF31183 		mrs   r3, basepri  
 2829 001a 4FF02001 		mov   r1, #32       
 2830 001e 81F31188 		msr   basepri, r1  
 2831              		
 2832              	@ 0 "" 2
 2833              	.LVL288:
 2834              		.loc 1 1683 22 view .LVU858
1684:RTT/SEGGER_RTT.c ****     pUp = &pRTTCB->aUp[BufferIndex];
 2835              		.loc 1 1684 5 view .LVU859
1685:RTT/SEGGER_RTT.c ****     if (BufferIndex) {
 2836              		.loc 1 1685 5 view .LVU860
 2837              		.loc 1 1685 8 is_stmt 0 view .LVU861
 2838              		.thumb
 2839              		.syntax unified
 2840 0022 9CB1     		cbz	r4, .L182
1686:RTT/SEGGER_RTT.c ****       pUp->sName        = sName;
 2841              		.loc 1 1686 7 is_stmt 1 view .LVU862
 2842              		.loc 1 1686 25 is_stmt 0 view .LVU863
 2843 0024 124D     		ldr	r5, .L186
 2844 0026 601C     		adds	r0, r4, #1
 2845 0028 00EB4002 		add	r2, r0, r0, lsl #1
 2846 002c D200     		lsls	r2, r2, #3
 2847 002e 45F80280 		str	r8, [r5, r2]
1687:RTT/SEGGER_RTT.c ****       pUp->pBuffer      = (char*)pBuffer;
 2848              		.loc 1 1687 7 is_stmt 1 view .LVU864
 2849              		.loc 1 1687 25 is_stmt 0 view .LVU865
 2850 0032 00EB4000 		add	r0, r0, r0, lsl #1
 2851 0036 05EBC000 		add	r0, r5, r0, lsl #3
 2852 003a 4760     		str	r7, [r0, #4]
1688:RTT/SEGGER_RTT.c ****       pUp->SizeOfBuffer = BufferSize;
 2853              		.loc 1 1688 7 is_stmt 1 view .LVU866
 2854              		.loc 1 1688 25 is_stmt 0 view .LVU867
 2855 003c 04EB4402 		add	r2, r4, r4, lsl #1
 2856 0040 05EBC202 		add	r2, r5, r2, lsl #3
 2857 0044 1662     		str	r6, [r2, #32]
1689:RTT/SEGGER_RTT.c ****       pUp->RdOff        = 0u;
 2858              		.loc 1 1689 7 is_stmt 1 view .LVU868
 2859              		.loc 1 1689 25 is_stmt 0 view .LVU869
 2860 0046 0021     		movs	r1, #0
 2861 0048 9162     		str	r1, [r2, #40]
1690:RTT/SEGGER_RTT.c ****       pUp->WrOff        = 0u;
 2862              		.loc 1 1690 7 is_stmt 1 view .LVU870
 2863              		.loc 1 1690 25 is_stmt 0 view .LVU871
 2864 004a 5162     		str	r1, [r2, #36]
 2865              	.L182:
1691:RTT/SEGGER_RTT.c ****     }
1692:RTT/SEGGER_RTT.c ****     pUp->Flags          = Flags;
 2866              		.loc 1 1692 5 is_stmt 1 view .LVU872
 2867              		.loc 1 1692 25 is_stmt 0 view .LVU873
 2868 004c 04EB4404 		add	r4, r4, r4, lsl #1
 2869              	.LVL289:
 2870              		.loc 1 1692 25 view .LVU874
 2871 0050 0748     		ldr	r0, .L186
 2872 0052 00EBC404 		add	r4, r0, r4, lsl #3
 2873 0056 069A     		ldr	r2, [sp, #24]
 2874 0058 E262     		str	r2, [r4, #44]
1693:RTT/SEGGER_RTT.c ****     SEGGER_RTT_UNLOCK();
ARM GAS  C:\Users\wizar\AppData\Local\Temp\ccRaZdSN.s 			page 86


 2875              		.loc 1 1693 5 is_stmt 1 view .LVU875
 2876              		.syntax unified
 2877              	@ 1693 "RTT/SEGGER_RTT.c" 1
 2878 005a 83F31188 		msr   basepri, r3  
 2879              		
 2880              	@ 0 "" 2
 2881              		.thumb
 2882              		.syntax unified
 2883              	.LBE33:
 2884              		.loc 1 1693 24 view .LVU876
1694:RTT/SEGGER_RTT.c ****     r =  0;
 2885              		.loc 1 1694 5 view .LVU877
 2886              	.LVL290:
 2887              		.loc 1 1694 7 is_stmt 0 view .LVU878
 2888 005e 0020     		movs	r0, #0
 2889              	.LVL291:
 2890              	.L179:
1695:RTT/SEGGER_RTT.c ****   } else {
1696:RTT/SEGGER_RTT.c ****     r = -1;
1697:RTT/SEGGER_RTT.c ****   }
1698:RTT/SEGGER_RTT.c ****   return r;
1699:RTT/SEGGER_RTT.c **** }
 2891              		.loc 1 1699 1 view .LVU879
 2892 0060 BDE8F081 		pop	{r4, r5, r6, r7, r8, pc}
 2893              	.LVL292:
 2894              	.L185:
 2895              	.LBB34:
1680:RTT/SEGGER_RTT.c ****   pRTTCB = (volatile SEGGER_RTT_CB*)((unsigned char*)&_SEGGER_RTT + SEGGER_RTT_UNCACHED_OFF);  // A
 2896              		.loc 1 1680 3 is_stmt 1 discriminator 1 view .LVU880
 2897 0064 FFF7FEFF 		bl	_DoInit
 2898              	.LVL293:
1680:RTT/SEGGER_RTT.c ****   pRTTCB = (volatile SEGGER_RTT_CB*)((unsigned char*)&_SEGGER_RTT + SEGGER_RTT_UNCACHED_OFF);  // A
 2899              		.loc 1 1680 3 is_stmt 0 discriminator 1 view .LVU881
 2900 0068 D3E7     		b	.L180
 2901              	.LVL294:
 2902              	.L183:
1680:RTT/SEGGER_RTT.c ****   pRTTCB = (volatile SEGGER_RTT_CB*)((unsigned char*)&_SEGGER_RTT + SEGGER_RTT_UNCACHED_OFF);  // A
 2903              		.loc 1 1680 3 discriminator 1 view .LVU882
 2904              	.LBE34:
1696:RTT/SEGGER_RTT.c ****   }
 2905              		.loc 1 1696 7 view .LVU883
 2906 006a 4FF0FF30 		mov	r0, #-1
 2907              	.LVL295:
1698:RTT/SEGGER_RTT.c **** }
 2908              		.loc 1 1698 3 is_stmt 1 view .LVU884
1698:RTT/SEGGER_RTT.c **** }
 2909              		.loc 1 1698 10 is_stmt 0 view .LVU885
 2910 006e F7E7     		b	.L179
 2911              	.L187:
 2912              		.align	2
 2913              	.L186:
 2914 0070 00000000 		.word	.LANCHOR1
 2915              		.cfi_endproc
 2916              	.LFE25:
 2918              		.section	.text.SEGGER_RTT_ConfigDownBuffer,"ax",%progbits
 2919              		.align	1
 2920              		.global	SEGGER_RTT_ConfigDownBuffer
ARM GAS  C:\Users\wizar\AppData\Local\Temp\ccRaZdSN.s 			page 87


 2921              		.syntax unified
 2922              		.thumb
 2923              		.thumb_func
 2925              	SEGGER_RTT_ConfigDownBuffer:
 2926              	.LVL296:
 2927              	.LFB26:
1700:RTT/SEGGER_RTT.c **** 
1701:RTT/SEGGER_RTT.c **** /*********************************************************************
1702:RTT/SEGGER_RTT.c **** *
1703:RTT/SEGGER_RTT.c **** *       SEGGER_RTT_ConfigDownBuffer
1704:RTT/SEGGER_RTT.c **** *
1705:RTT/SEGGER_RTT.c **** *  Function description
1706:RTT/SEGGER_RTT.c **** *    Run-time configuration of a specific down-buffer (H->T).
1707:RTT/SEGGER_RTT.c **** *    Buffer to be configured is specified by index.
1708:RTT/SEGGER_RTT.c **** *    This includes: Buffer address, size, name, flags, ...
1709:RTT/SEGGER_RTT.c **** *
1710:RTT/SEGGER_RTT.c **** *  Parameters
1711:RTT/SEGGER_RTT.c **** *    BufferIndex  Index of the buffer to configure.
1712:RTT/SEGGER_RTT.c **** *    sName        Pointer to a constant name string.
1713:RTT/SEGGER_RTT.c **** *    pBuffer      Pointer to a buffer to be used.
1714:RTT/SEGGER_RTT.c **** *    BufferSize   Size of the buffer.
1715:RTT/SEGGER_RTT.c **** *    Flags        Operating modes. Define behavior if buffer is full (not enough space for entire m
1716:RTT/SEGGER_RTT.c **** *                 Flags[31:24] are used for validity check and must be zero. Flags[23:2] are reserv
1717:RTT/SEGGER_RTT.c **** *
1718:RTT/SEGGER_RTT.c **** *  Return value
1719:RTT/SEGGER_RTT.c **** *    >= 0  O.K.
1720:RTT/SEGGER_RTT.c **** *     < 0  Error
1721:RTT/SEGGER_RTT.c **** *
1722:RTT/SEGGER_RTT.c **** *  Additional information
1723:RTT/SEGGER_RTT.c **** *    Buffer 0 is configured on compile-time.
1724:RTT/SEGGER_RTT.c **** *    May only be called once per buffer.
1725:RTT/SEGGER_RTT.c **** *    Buffer name and flags can be reconfigured using the appropriate functions.
1726:RTT/SEGGER_RTT.c **** */
